ccopy_reg
_reconstructor
p0
(ccom_github_MitjaNemec_SaveRestoreLayout.save_restore_layout
LayoutData
p1
c__builtin__
tuple
p2
(V1.1.11
p3
V(kicad_pcb (version 20211014) (generator pcbnew)\u000d\u000a\u000d\u000a  (general\u000d\u000a    (thickness 4.69)\u000d\u000a  )\u000d\u000a\u000d\u000a  (paper "A4")\u000d\u000a  (layers\u000d\u000a    (0 "F.Cu" signal)\u000d\u000a    (1 "In1.Cu" power)\u000d\u000a    (2 "In2.Cu" power)\u000d\u000a    (31 "B.Cu" signal)\u000d\u000a    (32 "B.Adhes" user "B.Adhesive")\u000d\u000a    (33 "F.Adhes" user "F.Adhesive")\u000d\u000a    (34 "B.Paste" user)\u000d\u000a    (35 "F.Paste" user)\u000d\u000a    (36 "B.SilkS" user "B.Silkscreen")\u000d\u000a    (37 "F.SilkS" user "F.Silkscreen")\u000d\u000a    (38 "B.Mask" user)\u000d\u000a    (39 "F.Mask" user)\u000d\u000a    (40 "Dwgs.User" user "User.Drawings")\u000d\u000a    (41 "Cmts.User" user "User.Comments")\u000d\u000a    (42 "Eco1.User" user "User.Eco1")\u000d\u000a    (43 "Eco2.User" user "User.Eco2")\u000d\u000a    (44 "Edge.Cuts" user)\u000d\u000a    (45 "Margin" user)\u000d\u000a    (46 "B.CrtYd" user "B.Courtyard")\u000d\u000a    (47 "F.CrtYd" user "F.Courtyard")\u000d\u000a    (48 "B.Fab" user)\u000d\u000a    (49 "F.Fab" user)\u000d\u000a    (50 "User.1" user)\u000d\u000a    (51 "User.2" user)\u000d\u000a    (52 "User.3" user)\u000d\u000a    (53 "User.4" user)\u000d\u000a    (54 "User.5" user)\u000d\u000a    (55 "User.6" user)\u000d\u000a    (56 "User.7" user)\u000d\u000a    (57 "User.8" user)\u000d\u000a    (58 "User.9" user)\u000d\u000a  )\u000d\u000a\u000d\u000a  (setup\u000d\u000a    (stackup\u000d\u000a      (layer "F.SilkS" (type "Top Silk Screen"))\u000d\u000a      (layer "F.Paste" (type "Top Solder Paste"))\u000d\u000a      (layer "F.Mask" (type "Top Solder Mask") (thickness 0.01))\u000d\u000a      (layer "F.Cu" (type "copper") (thickness 0.035))\u000d\u000a      (layer "dielectric 1" (type "core") (thickness 1.51) (material "FR4") (epsilon_r 4.5) (loss_tangent 0.02))\u000d\u000a      (layer "In1.Cu" (type "copper") (thickness 0.035))\u000d\u000a      (layer "dielectric 2" (type "prepreg") (thickness 1.51) (material "FR4") (epsilon_r 4.5) (loss_tangent 0.02))\u000d\u000a      (layer "In2.Cu" (type "copper") (thickness 0.035))\u000d\u000a      (layer "dielectric 3" (type "core") (thickness 1.51) (material "FR4") (epsilon_r 4.5) (loss_tangent 0.02))\u000d\u000a      (layer "B.Cu" (type "copper") (thickness 0.035))\u000d\u000a      (layer "B.Mask" (type "Bottom Solder Mask") (thickness 0.01))\u000d\u000a      (layer "B.Paste" (type "Bottom Solder Paste"))\u000d\u000a      (layer "B.SilkS" (type "Bottom Silk Screen"))\u000d\u000a      (copper_finish "None")\u000d\u000a      (dielectric_constraints no)\u000d\u000a    )\u000d\u000a    (pad_to_mask_clearance 0)\u000d\u000a    (pcbplotparams\u000d\u000a      (layerselection 0x00010fc_ffffffff)\u000d\u000a      (disableapertmacros false)\u000d\u000a      (usegerberextensions false)\u000d\u000a      (usegerberattributes true)\u000d\u000a      (usegerberadvancedattributes true)\u000d\u000a      (creategerberjobfile true)\u000d\u000a      (svguseinch false)\u000d\u000a      (svgprecision 6)\u000d\u000a      (excludeedgelayer true)\u000d\u000a      (plotframeref false)\u000d\u000a      (viasonmask false)\u000d\u000a      (mode 1)\u000d\u000a      (useauxorigin false)\u000d\u000a      (hpglpennumber 1)\u000d\u000a      (hpglpenspeed 20)\u000d\u000a      (hpglpendiameter 15.000000)\u000d\u000a      (dxfpolygonmode true)\u000d\u000a      (dxfimperialunits true)\u000d\u000a      (dxfusepcbnewfont true)\u000d\u000a      (psnegative false)\u000d\u000a      (psa4output false)\u000d\u000a      (plotreference true)\u000d\u000a      (plotvalue true)\u000d\u000a      (plotinvisibletext false)\u000d\u000a      (sketchpadsonfab false)\u000d\u000a      (subtractmaskfromsilk false)\u000d\u000a      (outputformat 1)\u000d\u000a      (mirror false)\u000d\u000a      (drillshape 0)\u000d\u000a      (scaleselection 1)\u000d\u000a      (outputdirectory "GERBER/")\u000d\u000a    )\u000d\u000a  )\u000d\u000a\u000d\u000a  (net 0 "")\u000d\u000a  (net 1 "GND")\u000d\u000a  (net 2 "+3.3V")\u000d\u000a  (net 3 "+12V")\u000d\u000a  (net 4 "+5V")\u000d\u000a  (net 5 "Net-(F1-Pad2)")\u000d\u000a  (net 6 "/CAN_BUS/CAN1_H")\u000d\u000a  (net 7 "/CAN_BUS/CAN2_H")\u000d\u000a  (net 8 "/POWER/PG3V3")\u000d\u000a  (net 9 "Net-(C19-Pad2)")\u000d\u000a  (net 10 "Net-(IC3-Pad5)")\u000d\u000a  (net 11 "Net-(IC3-Pad6)")\u000d\u000a  (net 12 "Net-(C18-Pad2)")\u000d\u000a  (net 13 "Net-(IC3-Pad8)")\u000d\u000a  (net 14 "12V_CONN")\u000d\u000a  (net 15 "/CAN_BUS/CAN1_L")\u000d\u000a  (net 16 "/CAN_BUS/CAN2_L")\u000d\u000a  (net 17 "Net-(C19-Pad1)")\u000d\u000a  (net 18 "Net-(C20-Pad1)")\u000d\u000a  (net 19 "unconnected-(IC2-Pad6)")\u000d\u000a\u000d\u000a  (footprint "Capacitor_SMD:C_0805_2012Metric" (layer "F.Cu")\u000d\u000a    (tedit 5F68FEEE) (tstamp 03c067dc-15c1-4da7-a69c-94141eaf99bf)\u000d\u000a    (at 159.8676 75.6412 180)\u000d\u000a    (descr "Capacitor SMD 0805 (2012 Metric), square (rectangular) end terminal, IPC_7351 nominal, (Body size source: IPC-SM-782 page 76, https://www.pcb-3d.com/wordpress/wp-content/uploads/ipc-sm-782a_amendment_1_and_2.pdf, https://docs.google.com/spreadsheets/d/1BsfQQcO9C6DZCsRaXUlFlo91Tg2WpOkGARC1WS5S8t0/edit?usp=sharing), generated with kicad-footprint-generator")\u000d\u000a    (tags "capacitor")\u000d\u000a    (property "Sheetfile" "File: power.kicad_sch")\u000d\u000a    (property "Sheetname" "POWER")\u000d\u000a    (path "/15ef381a-403b-4e16-bdb3-d63c11fd81a5/fb88c143-3659-425b-9775-cf77c27ca176")\u000d\u000a    (attr smd)\u000d\u000a    (fp_text reference "C15" (at 2.4892 -0.3048 unlocked) (layer "F.SilkS")\u000d\u000a      (effects (font (size 0.6 0.6) (thickness 0.15)))\u000d\u000a      (tstamp 358b2d64-fa3d-48c7-832e-4fe85b2ccedc)\u000d\u000a    )\u000d\u000a    (fp_text value "22uF" (at 0 1.68 180 unlocked) (layer "F.Fab")\u000d\u000a      (effects (font (size 0.6 0.6) (thickness 0.15)))\u000d\u000a      (tstamp 0fdacabf-b249-43f8-acbe-9e200bf90d98)\u000d\u000a    )\u000d\u000a    (fp_text user "${REFERENCE}" (at 0 0) (layer "F.Fab")\u000d\u000a      (effects (font (size 0.5 0.5) (thickness 0.08)))\u000d\u000a      (tstamp 2743d87d-b95d-47f2-bf55-b315456337b4)\u000d\u000a    )\u000d\u000a    (fp_line (start -0.261252 -0.735) (end 0.261252 -0.735) (layer "F.SilkS") (width 0.12) (tstamp 4bb82552-48ee-4138-879e-9a1d4c99737a))\u000d\u000a    (fp_line (start -0.261252 0.735) (end 0.261252 0.735) (layer "F.SilkS") (width 0.12) (tstamp 6d7908b8-3923-4cc6-9c76-f132942d68ca))\u000d\u000a    (fp_line (start 1.7 0.98) (end -1.7 0.98) (layer "F.CrtYd") (width 0.05) (tstamp 0fee59b7-4b41-4b92-9cbe-75b306e3efde))\u000d\u000a    (fp_line (start 1.7 -0.98) (end 1.7 0.98) (layer "F.CrtYd") (width 0.05) (tstamp 45e869fa-1e0f-46b4-8e13-4e0d888b0ad5))\u000d\u000a    (fp_line (start -1.7 0.98) (end -1.7 -0.98) (layer "F.CrtYd") (width 0.05) (tstamp 5df8193f-9e05-49aa-b080-ad0d8d39a8f5))\u000d\u000a    (fp_line (start -1.7 -0.98) (end 1.7 -0.98) (layer "F.CrtYd") (width 0.05) (tstamp 9bbd28ec-1dea-4450-8ff6-3f64b2718800))\u000d\u000a    (fp_line (start -1 -0.625) (end 1 -0.625) (layer "F.Fab") (width 0.1) (tstamp 0e6704da-4689-4fe6-8385-f41250516075))\u000d\u000a    (fp_line (start 1 -0.625) (end 1 0.625) (layer "F.Fab") (width 0.1) (tstamp 59bbb011-79ff-4209-913c-446158160849))\u000d\u000a    (fp_line (start 1 0.625) (end -1 0.625) (layer "F.Fab") (width 0.1) (tstamp 9208744d-ec6a-4d4f-ac3b-3a739def1df5))\u000d\u000a    (fp_line (start -1 0.625) (end -1 -0.625) (layer "F.Fab") (width 0.1) (tstamp e2128ab0-6a5d-480d-a0f8-5e9f9803d18c))\u000d\u000a    (pad "1" smd roundrect (at -0.95 0 180) (size 1 1.45) (layers "F.Cu" "F.Paste" "F.Mask") (roundrect_rratio 0.25)\u000d\u000a      (net 1 "GND") (pintype "passive") (tstamp 0d7ddd9b-5f51-4fe0-b432-5ae1d403585d))\u000d\u000a    (pad "2" smd roundrect (at 0.95 0 180) (size 1 1.45) (layers "F.Cu" "F.Paste" "F.Mask") (roundrect_rratio 0.25)\u000d\u000a      (net 3 "+12V") (pintype "passive") (tstamp 8454d0d1-7ed1-4bad-9343-2055708b098a))\u000d\u000a    (model "${KICAD6_3DMODEL_DIR}/Capacitor_SMD.3dshapes/C_0805_2012Metric.wrl"\u000d\u000a      (offset (xyz 0 0 0))\u000d\u000a      (scale (xyz 1 1 1))\u000d\u000a      (rotate (xyz 0 0 0))\u000d\u000a    )\u000d\u000a  )\u000d\u000a\u000d\u000a  (footprint "PDMS_Additional:SON95P300X300X90-7N-D" (layer "F.Cu")\u000d\u000a    (tedit 0) (tstamp 0fc8be03-83dd-47d7-bcde-ce4de8fe9aea)\u000d\u000a    (at 154.339 55.012)\u000d\u000a    (descr "DFN6 (3x3) package outline-A")\u000d\u000a    (tags "Integrated Circuit")\u000d\u000a    (property "Arrow Part Number" "LDO40LPU50RY")\u000d\u000a    (property "Arrow Price/Stock" "https://www.arrow.com/en/products/ldo40lpu50ry/stmicroelectronics?region=nac")\u000d\u000a    (property "Description" "LDO Voltage Regulators 400 mA, 38 V low-dropout regulator")\u000d\u000a    (property "Height" "0.9")\u000d\u000a    (property "Manufacturer_Name" "STMicroelectronics")\u000d\u000a    (property "Manufacturer_Part_Number" "LDO40LPU50RY")\u000d\u000a    (property "Mouser Part Number" "511-LDO40LPU50RY")\u000d\u000a    (property "Mouser Price/Stock" "https://www.mouser.co.uk/ProductDetail/STMicroelectronics/LDO40LPU50RY?qs=qSfuJ%252Bfl%2Fd76TFu8P3XttQ%3D%3D")\u000d\u000a    (property "Mouser Testing Part Number" "")\u000d\u000a    (property "Mouser Testing Price/Stock" "")\u000d\u000a    (property "Sheetfile" "File: power.kicad_sch")\u000d\u000a    (property "Sheetname" "POWER")\u000d\u000a    (path "/15ef381a-403b-4e16-bdb3-d63c11fd81a5/44f191b3-3aef-4339-a0e1-7ce959cf03e1")\u000d\u000a    (attr smd)\u000d\u000a    (fp_text reference "IC2" (at 1.6678 2.3412 unlocked) (layer "F.SilkS")\u000d\u000a      (effects (font (size 0.6 0.6) (thickness 0.254)))\u000d\u000a      (tstamp 50e1dd13-9c3e-48d6-93a1-f2cc3c42f85c)\u000d\u000a    )\u000d\u000a    (fp_text value "LDO40LPU50RY" (at 0 0 unlocked) (layer "F.SilkS") hide\u000d\u000a      (effects (font (size 0.6 0.6) (thickness 0.254)))\u000d\u000a      (tstamp 505ff7a1-6c47-4456-8363-f8a91def26ae)\u000d\u000a    )\u000d\u000a    (fp_text user "${REFERENCE}" (at 0 0) (layer "F.Fab")\u000d\u000a      (effects (font (size 1.27 1.27) (thickness 0.254)))\u000d\u000a      (tstamp 598caff0-a5ba-4ee1-99f7-c75320a71a6c)\u000d\u000a    )\u000d\u000a    (fp_circle (center -1.875 -1.6) (end -1.875 -1.475) (layer "F.SilkS") (width 0.25) (fill none) (tstamp 2236c171-93e6-4b90-9983-f8b25c63d1d6))\u000d\u000a    (fp_line (start -2.125 1.775) (end -2.125 -1.775) (layer "F.CrtYd") (width 0.05) (tstamp 3a75b8f9-f22f-4605-8bc4-a9d2e63d8a11))\u000d\u000a    (fp_line (start 2.125 1.775) (end -2.125 1.775) (layer "F.CrtYd") (width 0.05) (tstamp 67c40ee9-d6d7-4923-85de-3b1307444dd9))\u000d\u000a    (fp_line (start -2.125 -1.775) (end 2.125 -1.775) (layer "F.CrtYd") (width 0.05) (tstamp efa69546-9b01-4b88-abc6-948ce3369978))\u000d\u000a    (fp_line (start 2.125 -1.775) (end 2.125 1.775) (layer "F.CrtYd") (width 0.05) (tstamp efea0e6c-b460-4bd1-b5f1-3b94d33346f5))\u000d\u000a    (fp_line (start -1.5 -1.5) (end 1.5 -1.5) (layer "F.Fab") (width 0.1) (tstamp 1bd52da2-a40c-4dc4-809b-fbfa604e1261))\u000d\u000a    (fp_line (start -1.5 -0.75) (end -0.75 -1.5) (layer "F.Fab") (width 0.1) (tstamp 6555e3d9-cd55-44c1-b883-9426359ebb9d))\u000d\u000a    (fp_line (start 1.5 -1.5) (end 1.5 1.5) (layer "F.Fab") (width 0.1) (tstamp 77170ec9-cce5-4486-b07d-339a8f35aa17))\u000d\u000a    (fp_line (start -1.5 1.5) (end -1.5 -1.5) (layer "F.Fab") (width 0.1) (tstamp a3eb921d-5665-4d38-b8c3-936f069823ec))\u000d\u000a    (fp_line (start 1.5 1.5) (end -1.5 1.5) (layer "F.Fab") (width 0.1) (tstamp caa21b5e-5896-4f1a-b767-1e1753015d68))\u000d\u000a    (pad "1" smd rect (at -1.45 -0.95 90) (size 0.3 0.85) (layers "F.Cu" "F.Paste" "F.Mask")\u000d\u000a      (net 1 "GND") (pinfunction "GND_1") (pintype "passive") (tstamp 6116a613-0756-47a9-84d9-1792e61ca46b))\u000d\u000a    (pad "2" smd rect (at -1.45 0 90) (size 0.3 0.85) (layers "F.Cu" "F.Paste" "F.Mask")\u000d\u000a      (net 3 "+12V") (pinfunction "EN") (pintype "passive") (tstamp a8b0ad15-af31-4676-974a-83b011d46f77))\u000d\u000a    (pad "3" smd rect (at -1.45 0.95 90) (size 0.3 0.85) (layers "F.Cu" "F.Paste" "F.Mask")\u000d\u000a      (net 3 "+12V") (pinfunction "VIN") (pintype "passive") (tstamp cb3ab9a6-a96e-48b5-9528-6b5281451769))\u000d\u000a    (pad "4" smd rect (at 1.45 0.95 90) (size 0.3 0.85) (layers "F.Cu" "F.Paste" "F.Mask")\u000d\u000a      (net 4 "+5V") (pinfunction "VOUT") (pintype "passive") (tstamp 92543b28-94a3-4863-9a0e-583466592c52))\u000d\u000a    (pad "5" smd rect (at 1.45 0 90) (size 0.3 0.85) (layers "F.Cu" "F.Paste" "F.Mask")\u000d\u000a      (net 4 "+5V") (pinfunction "VSENSE") (pintype "passive") (tstamp fc454187-a017-434d-aa90-ef8054212579))\u000d\u000a    (pad "6" smd rect (at 1.45 -0.95 90) (size 0.3 0.85) (layers "F.Cu" "F.Paste" "F.Mask")\u000d\u000a      (net 19 "unconnected-(IC2-Pad6)") (pinfunction "ADJ") (pintype "passive+no_connect") (tstamp 6906eb95-3355-41bc-9d87-6eb7f5a9afc8))\u000d\u000a    (pad "7" smd rect (at 0 0) (size 1.7 2.5) (layers "F.Cu" "F.Paste" "F.Mask")\u000d\u000a      (net 1 "GND") (pinfunction "GND_2") (pintype "passive") (tstamp e97df0f2-c3f8-4106-8948-a7a94ba479fd))\u000d\u000a    (model "LDO40LPU50RY.stp"\u000d\u000a      (offset (xyz 0 0 0))\u000d\u000a      (scale (xyz 1 1 1))\u000d\u000a      (rotate (xyz 0 0 0))\u000d\u000a    )\u000d\u000a  )\u000d\u000a\u000d\u000a  (footprint "Capacitor_SMD:C_0805_2012Metric" (layer "F.Cu")\u000d\u000a    (tedit 5F68FEEE) (tstamp 3cfb7b12-224e-42a5-a516-effc1f6a863b)\u000d\u000a    (at 150.529 55.372 90)\u000d\u000a    (descr "Capacitor SMD 0805 (2012 Metric), square (rectangular) end terminal, IPC_7351 nominal, (Body size source: IPC-SM-782 page 76, https://www.pcb-3d.com/wordpress/wp-content/uploads/ipc-sm-782a_amendment_1_and_2.pdf, https://docs.google.com/spreadsheets/d/1BsfQQcO9C6DZCsRaXUlFlo91Tg2WpOkGARC1WS5S8t0/edit?usp=sharing), generated with kicad-footprint-generator")\u000d\u000a    (tags "capacitor")\u000d\u000a    (property "Sheetfile" "File: power.kicad_sch")\u000d\u000a    (property "Sheetname" "POWER")\u000d\u000a    (path "/15ef381a-403b-4e16-bdb3-d63c11fd81a5/72e5787c-1f87-4d54-bf66-8d1cff6924e7")\u000d\u000a    (attr smd)\u000d\u000a    (fp_text reference "C13" (at 2.032 0.635 unlocked) (layer "F.SilkS")\u000d\u000a      (effects (font (size 0.6 0.6) (thickness 0.15)))\u000d\u000a      (tstamp 26fbaad5-04bc-48ea-a7ce-9887e671ae95)\u000d\u000a    )\u000d\u000a    (fp_text value "1uF" (at 0 1.68 90 unlocked) (layer "F.Fab")\u000d\u000a      (effects (font (size 0.6 0.6) (thickness 0.15)))\u000d\u000a      (tstamp 0574e9e5-0233-4a97-9cbc-50791e3379b3)\u000d\u000a    )\u000d\u000a    (fp_text user "${REFERENCE}" (at 0 0 90) (layer "F.Fab")\u000d\u000a      (effects (font (size 0.5 0.5) (thickness 0.08)))\u000d\u000a      (tstamp 7e088fcf-abc7-4781-b4da-2b45d3690dd8)\u000d\u000a    )\u000d\u000a    (fp_line (start -0.261252 -0.735) (end 0.261252 -0.735) (layer "F.SilkS") (width 0.12) (tstamp 4db122f1-9565-42d8-a5cb-cd247899dde9))\u000d\u000a    (fp_line (start -0.261252 0.735) (end 0.261252 0.735) (layer "F.SilkS") (width 0.12) (tstamp b7b3e848-ea6b-4492-b1ac-68fc072fa95d))\u000d\u000a    (fp_line (start 1.7 0.98) (end -1.7 0.98) (layer "F.CrtYd") (width 0.05) (tstamp 1d479ee3-a339-49b1-a0cd-8d5eedeafb78))\u000d\u000a    (fp_line (start -1.7 0.98) (end -1.7 -0.98) (layer "F.CrtYd") (width 0.05) (tstamp 539f8c91-ce27-4ac5-b5c4-c31a785956b9))\u000d\u000a    (fp_line (start 1.7 -0.98) (end 1.7 0.98) (layer "F.CrtYd") (width 0.05) (tstamp b593721b-8108-4f05-b17a-06500bca109d))\u000d\u000a    (fp_line (start -1.7 -0.98) (end 1.7 -0.98) (layer "F.CrtYd") (width 0.05) (tstamp d7f22f3c-dfc0-485f-9285-d6eb73322e0b))\u000d\u000a    (fp_line (start -1 0.625) (end -1 -0.625) (layer "F.Fab") (width 0.1) (tstamp 7e9b12bf-cf05-4f69-b115-5a91110396cd))\u000d\u000a    (fp_line (start -1 -0.625) (end 1 -0.625) (layer "F.Fab") (width 0.1) (tstamp 89a99b87-4e85-4e9f-9b91-24157fe726ba))\u000d\u000a    (fp_line (start 1 -0.625) (end 1 0.625) (layer "F.Fab") (width 0.1) (tstamp 930c79f6-ceb2-48ac-a0c5-264c3a33ec24))\u000d\u000a    (fp_line (start 1 0.625) (end -1 0.625) (layer "F.Fab") (width 0.1) (tstamp ba4dc7d8-4b7b-451f-b839-c6d49f6ed118))\u000d\u000a    (pad "1" smd roundrect (at -0.95 0 90) (size 1 1.45) (layers "F.Cu" "F.Paste" "F.Mask") (roundrect_rratio 0.25)\u000d\u000a      (net 3 "+12V") (pintype "passive") (tstamp fcc6baa0-9651-47bc-8cf9-8a2e2350598f))\u000d\u000a    (pad "2" smd roundrect (at 0.95 0 90) (size 1 1.45) (layers "F.Cu" "F.Paste" "F.Mask") (roundrect_rratio 0.25)\u000d\u000a      (net 1 "GND") (pintype "passive") (tstamp bda0b747-958e-4695-929d-57cb36ada255))\u000d\u000a    (model "${KICAD6_3DMODEL_DIR}/Capacitor_SMD.3dshapes/C_0805_2012Metric.wrl"\u000d\u000a      (offset (xyz 0 0 0))\u000d\u000a      (scale (xyz 1 1 1))\u000d\u000a      (rotate (xyz 0 0 0))\u000d\u000a    )\u000d\u000a  )\u000d\u000a\u000d\u000a  (footprint "Resistor_SMD:R_0402_1005Metric_Pad0.72x0.64mm_HandSolder" (layer "F.Cu")\u000d\u000a    (tedit 5F6BB9E0) (tstamp 655cbf68-b2e0-4629-81b3-af28e77b94ba)\u000d\u000a    (at 163.3053 76.088)\u000d\u000a    (descr "Resistor SMD 0402 (1005 Metric), square (rectangular) end terminal, IPC_7351 nominal with elongated pad for handsoldering. (Body size source: IPC-SM-782 page 72, https://www.pcb-3d.com/wordpress/wp-content/uploads/ipc-sm-782a_amendment_1_and_2.pdf), generated with kicad-footprint-generator")\u000d\u000a    (tags "resistor handsolder")\u000d\u000a    (property "Sheetfile" "File: power.kicad_sch")\u000d\u000a    (property "Sheetname" "POWER")\u000d\u000a    (path "/15ef381a-403b-4e16-bdb3-d63c11fd81a5/6cca82d4-3799-482f-a792-9a320e76c6f8")\u000d\u000a    (attr smd)\u000d\u000a    (fp_text reference "R11" (at 2.286 0 unlocked) (layer "F.SilkS")\u000d\u000a      (effects (font (size 0.6 0.6) (thickness 0.15)))\u000d\u000a      (tstamp 907b6c10-af0e-4bbf-8ec5-be97f969fb54)\u000d\u000a    )\u000d\u000a    (fp_text value "40.2k" (at 0 1.17 unlocked) (layer "F.Fab")\u000d\u000a      (effects (font (size 0.6 0.6) (thickness 0.15)))\u000d\u000a      (tstamp 8247c022-fbc8-43c2-8416-4af83699d526)\u000d\u000a    )\u000d\u000a    (fp_text user "${REFERENCE}" (at 0 0) (layer "F.Fab")\u000d\u000a      (effects (font (size 0.26 0.26) (thickness 0.04)))\u000d\u000a      (tstamp 56e7f406-459a-493d-9c67-32fd493be43a)\u000d\u000a    )\u000d\u000a    (fp_line (start -0.167621 -0.38) (end 0.167621 -0.38) (layer "F.SilkS") (width 0.12) (tstamp 61a10703-21ff-4cc8-a115-d5cf75b5414c))\u000d\u000a    (fp_line (start -0.167621 0.38) (end 0.167621 0.38) (layer "F.SilkS") (width 0.12) (tstamp 67169267-5077-40e7-8ffb-24fa74ca1a95))\u000d\u000a    (fp_line (start -1.1 -0.47) (end 1.1 -0.47) (layer "F.CrtYd") (width 0.05) (tstamp 5ad5e38a-a6b3-476f-99b0-2ef5f0a5f6b3))\u000d\u000a    (fp_line (start 1.1 -0.47) (end 1.1 0.47) (layer "F.CrtYd") (width 0.05) (tstamp 7ff719ef-8ba4-4868-a071-75d1beaf175b))\u000d\u000a    (fp_line (start -1.1 0.47) (end -1.1 -0.47) (layer "F.CrtYd") (width 0.05) (tstamp ca3f23f6-8530-4b5c-b5cd-739062c93d26))\u000d\u000a    (fp_line (start 1.1 0.47) (end -1.1 0.47) (layer "F.CrtYd") (width 0.05) (tstamp d5d51751-d9b9-40c0-acd3-3aced10cbb5f))\u000d\u000a    (fp_line (start 0.525 -0.27) (end 0.525 0.27) (layer "F.Fab") (width 0.1) (tstamp 457e8f5d-d67d-4426-83b1-666b1c6efbb9))\u000d\u000a    (fp_line (start 0.525 0.27) (end -0.525 0.27) (layer "F.Fab") (width 0.1) (tstamp 553d57a4-524d-4a4c-8622-1f6925aefc56))\u000d\u000a    (fp_line (start -0.525 -0.27) (end 0.525 -0.27) (layer "F.Fab") (width 0.1) (tstamp aa5b5959-5fdf-45fd-af5d-f74bb0bec991))\u000d\u000a    (fp_line (start -0.525 0.27) (end -0.525 -0.27) (layer "F.Fab") (width 0.1) (tstamp b41e2d2a-d0b6-4463-a666-38369bbd34c8))\u000d\u000a    (pad "1" smd roundrect (at -0.5975 0) (size 0.715 0.64) (layers "F.Cu" "F.Paste" "F.Mask") (roundrect_rratio 0.25)\u000d\u000a      (net 2 "+3.3V") (pintype "passive") (tstamp 66ff1140-0489-47bd-9912-b90724ad55f4))\u000d\u000a    (pad "2" smd roundrect (at 0.5975 0) (size 0.715 0.64) (layers "F.Cu" "F.Paste" "F.Mask") (roundrect_rratio 0.25)\u000d\u000a      (net 18 "Net-(C20-Pad1)") (pintype "passive") (tstamp c0024954-8a29-4738-9816-126fd8a6bb55))\u000d\u000a    (model "${KICAD6_3DMODEL_DIR}/Resistor_SMD.3dshapes/R_0402_1005Metric.wrl"\u000d\u000a      (offset (xyz 0 0 0))\u000d\u000a      (scale (xyz 1 1 1))\u000d\u000a      (rotate (xyz 0 0 0))\u000d\u000a    )\u000d\u000a  )\u000d\u000a\u000d\u000a  (footprint "Capacitor_SMD:C_0402_1005Metric_Pad0.74x0.62mm_HandSolder" (layer "F.Cu")\u000d\u000a    (tedit 5F6BB22C) (tstamp 821208a5-a2df-4220-93c3-952d9096d252)\u000d\u000a    (at 152.9588 75.7936)\u000d\u000a    (descr "Capacitor SMD 0402 (1005 Metric), square (rectangular) end terminal, IPC_7351 nominal with elongated pad for handsoldering. (Body size source: IPC-SM-782 page 76, https://www.pcb-3d.com/wordpress/wp-content/uploads/ipc-sm-782a_amendment_1_and_2.pdf), generated with kicad-footprint-generator")\u000d\u000a    (tags "capacitor handsolder")\u000d\u000a    (property "Sheetfile" "File: power.kicad_sch")\u000d\u000a    (property "Sheetname" "POWER")\u000d\u000a    (path "/15ef381a-403b-4e16-bdb3-d63c11fd81a5/75d5fb79-6057-4a57-8597-85614dd7e487")\u000d\u000a    (attr smd)\u000d\u000a    (fp_text reference "C21" (at -2.6924 0 unlocked) (layer "F.SilkS")\u000d\u000a      (effects (font (size 0.6 0.6) (thickness 0.15)))\u000d\u000a      (tstamp 789cd6c8-2569-49ce-8069-5f4767ba20c6)\u000d\u000a    )\u000d\u000a    (fp_text value "22uF" (at 0 1.16 unlocked) (layer "F.Fab")\u000d\u000a      (effects (font (size 0.6 0.6) (thickness 0.15)))\u000d\u000a      (tstamp 7427e2e9-baea-4ba1-8135-c4347a5c4ddc)\u000d\u000a    )\u000d\u000a    (fp_text user "${REFERENCE}" (at 0 0) (layer "F.Fab")\u000d\u000a      (effects (font (size 0.25 0.25) (thickness 0.04)))\u000d\u000a      (tstamp 4b7be8f1-711b-420e-bb09-6bb3bd2d759a)\u000d\u000a    )\u000d\u000a    (fp_line (start -0.115835 -0.36) (end 0.115835 -0.36) (layer "F.SilkS") (width 0.12) (tstamp 84e7f842-ec75-4a06-8c77-ce937b9c279a))\u000d\u000a    (fp_line (start -0.115835 0.36) (end 0.115835 0.36) (layer "F.SilkS") (width 0.12) (tstamp e60a67b6-977f-4f92-af04-e1e3caf60293))\u000d\u000a    (fp_line (start 1.08 0.46) (end -1.08 0.46) (layer "F.CrtYd") (width 0.05) (tstamp 3cba9ab1-7b8a-40f2-b9a7-a6b0d90320a7))\u000d\u000a    (fp_line (start 1.08 -0.46) (end 1.08 0.46) (layer "F.CrtYd") (width 0.05) (tstamp 6c5a9f9e-8db7-4138-9cf1-d600c3a7e57c))\u000d\u000a    (fp_line (start -1.08 0.46) (end -1.08 -0.46) (layer "F.CrtYd") (width 0.05) (tstamp 89bbfdc4-2b5f-47f0-a0be-aa3bd662693a))\u000d\u000a    (fp_line (start -1.08 -0.46) (end 1.08 -0.46) (layer "F.CrtYd") (width 0.05) (tstamp 8f19a7f8-de84-4115-bcd8-5fae2690efa6))\u000d\u000a    (fp_line (start 0.5 0.25) (end -0.5 0.25) (layer "F.Fab") (width 0.1) (tstamp 0a0f6d71-93bd-4d34-928a-ddd4b04fab5e))\u000d\u000a    (fp_line (start -0.5 0.25) (end -0.5 -0.25) (layer "F.Fab") (width 0.1) (tstamp 1a8bbd7f-3014-4d44-ae41-c14be1fa970c))\u000d\u000a    (fp_line (start -0.5 -0.25) (end 0.5 -0.25) (layer "F.Fab") (width 0.1) (tstamp 3c9cdb6a-9257-402b-b5bc-e046fff088ad))\u000d\u000a    (fp_line (start 0.5 -0.25) (end 0.5 0.25) (layer "F.Fab") (width 0.1) (tstamp e8bd71fd-f018-44b4-b187-897aea6d860b))\u000d\u000a    (pad "1" smd roundrect (at -0.5675 0) (size 0.735 0.62) (layers "F.Cu" "F.Paste" "F.Mask") (roundrect_rratio 0.25)\u000d\u000a      (net 1 "GND") (pintype "passive") (tstamp f80e7819-d154-4ce8-ab20-aab56587a7ad))\u000d\u000a    (pad "2" smd roundrect (at 0.5675 0) (size 0.735 0.62) (layers "F.Cu" "F.Paste" "F.Mask") (roundrect_rratio 0.25)\u000d\u000a      (net 2 "+3.3V") (pintype "passive") (tstamp 422b789e-8e61-4da6-a89b-caeb7ac4ba5e))\u000d\u000a    (model "${KICAD6_3DMODEL_DIR}/Capacitor_SMD.3dshapes/C_0402_1005Metric.wrl"\u000d\u000a      (offset (xyz 0 0 0))\u000d\u000a      (scale (xyz 1 1 1))\u000d\u000a      (rotate (xyz 0 0 0))\u000d\u000a    )\u000d\u000a  )\u000d\u000a\u000d\u000a  (footprint "Resistor_SMD:R_0402_1005Metric_Pad0.72x0.64mm_HandSolder" (layer "F.Cu")\u000d\u000a    (tedit 5F6BB9E0) (tstamp 8508be6c-b860-4643-97f9-b13e0f5d66c6)\u000d\u000a    (at 163.322 78.613 180)\u000d\u000a    (descr "Resistor SMD 0402 (1005 Metric), square (rectangular) end terminal, IPC_7351 nominal with elongated pad for handsoldering. (Body size source: IPC-SM-782 page 72, https://www.pcb-3d.com/wordpress/wp-content/uploads/ipc-sm-782a_amendment_1_and_2.pdf), generated with kicad-footprint-generator")\u000d\u000a    (tags "resistor handsolder")\u000d\u000a    (property "Sheetfile" "File: power.kicad_sch")\u000d\u000a    (property "Sheetname" "POWER")\u000d\u000a    (path "/15ef381a-403b-4e16-bdb3-d63c11fd81a5/4098ef8d-dfd8-4dc4-801e-602d84f11c93")\u000d\u000a    (attr smd)\u000d\u000a    (fp_text reference "R9" (at -1.9812 0 unlocked) (layer "F.SilkS")\u000d\u000a      (effects (font (size 0.6 0.6) (thickness 0.15)))\u000d\u000a      (tstamp f6b4377a-69df-46a8-bb8f-14c2d9f09b08)\u000d\u000a    )\u000d\u000a    (fp_text value "20k" (at 0 1.17 180 unlocked) (layer "F.Fab")\u000d\u000a      (effects (font (size 0.6 0.6) (thickness 0.15)))\u000d\u000a      (tstamp 5b39f162-0f38-45c4-af22-f051f27ff917)\u000d\u000a    )\u000d\u000a    (fp_text user "${REFERENCE}" (at 0 0) (layer "F.Fab")\u000d\u000a      (effects (font (size 0.26 0.26) (thickness 0.04)))\u000d\u000a      (tstamp 90934763-0625-412a-859d-46ba13a6f0f9)\u000d\u000a    )\u000d\u000a    (fp_line (start -0.167621 0.38) (end 0.167621 0.38) (layer "F.SilkS") (width 0.12) (tstamp 24c8c452-dc6f-4b3f-9219-0267ce1eb910))\u000d\u000a    (fp_line (start -0.167621 -0.38) (end 0.167621 -0.38) (layer "F.SilkS") (width 0.12) (tstamp ddf34d4f-3344-488e-b3c9-c647e086f7ae))\u000d\u000a    (fp_line (start 1.1 0.47) (end -1.1 0.47) (layer "F.CrtYd") (width 0.05) (tstamp 0a38aa39-d1db-4f7e-8709-ddb7fe1099cc))\u000d\u000a    (fp_line (start 1.1 -0.47) (end 1.1 0.47) (layer "F.CrtYd") (width 0.05) (tstamp 4dddf54f-eda8-49d6-86b4-7cee38252319))\u000d\u000a    (fp_line (start -1.1 -0.47) (end 1.1 -0.47) (layer "F.CrtYd") (width 0.05) (tstamp a5724134-b40e-4f6b-bf40-2d0e777fad6e))\u000d\u000a    (fp_line (start -1.1 0.47) (end -1.1 -0.47) (layer "F.CrtYd") (width 0.05) (tstamp bc29c19b-883f-4939-a468-45f9bc1cd4fb))\u000d\u000a    (fp_line (start 0.525 0.27) (end -0.525 0.27) (layer "F.Fab") (width 0.1) (tstamp a6e04095-26fc-4444-a454-1b5ec14bd19d))\u000d\u000a    (fp_line (start 0.525 -0.27) (end 0.525 0.27) (layer "F.Fab") (width 0.1) (tstamp ac343d62-cc61-4ce9-9b4b-1f6dc8291c35))\u000d\u000a    (fp_line (start -0.525 0.27) (end -0.525 -0.27) (layer "F.Fab") (width 0.1) (tstamp c47083fd-2185-4c53-97c4-c5236817e5f1))\u000d\u000a    (fp_line (start -0.525 -0.27) (end 0.525 -0.27) (layer "F.Fab") (width 0.1) (tstamp e60bf82f-63b5-4a54-8b1a-c6368cf03423))\u000d\u000a    (pad "1" smd roundrect (at -0.5975 0 180) (size 0.715 0.64) (layers "F.Cu" "F.Paste" "F.Mask") (roundrect_rratio 0.25)\u000d\u000a      (net 18 "Net-(C20-Pad1)") (pintype "passive") (tstamp 961f0fff-d7f7-4203-859e-32b9d47260a8))\u000d\u000a    (pad "2" smd roundrect (at 0.5975 0 180) (size 0.715 0.64) (layers "F.Cu" "F.Paste" "F.Mask") (roundrect_rratio 0.25)\u000d\u000a      (net 13 "Net-(IC3-Pad8)") (pintype "passive") (tstamp ab219f70-de5b-43a1-93ed-851fb4d05e08))\u000d\u000a    (model "${KICAD6_3DMODEL_DIR}/Resistor_SMD.3dshapes/R_0402_1005Metric.wrl"\u000d\u000a      (offset (xyz 0 0 0))\u000d\u000a      (scale (xyz 1 1 1))\u000d\u000a      (rotate (xyz 0 0 0))\u000d\u000a    )\u000d\u000a  )\u000d\u000a\u000d\u000a  (footprint "Capacitor_SMD:C_0603_1608Metric" (layer "F.Cu")\u000d\u000a    (tedit 5F68FEEE) (tstamp 8533d024-134a-426c-baa3-723787974f24)\u000d\u000a    (at 158.149 54.377 90)\u000d\u000a    (descr "Capacitor SMD 0603 (1608 Metric), square (rectangular) end terminal, IPC_7351 nominal, (Body size source: IPC-SM-782 page 76, https://www.pcb-3d.com/wordpress/wp-content/uploads/ipc-sm-782a_amendment_1_and_2.pdf), generated with kicad-footprint-generator")\u000d\u000a    (tags "capacitor")\u000d\u000a    (property "Sheetfile" "File: power.kicad_sch")\u000d\u000a    (property "Sheetname" "POWER")\u000d\u000a    (path "/15ef381a-403b-4e16-bdb3-d63c11fd81a5/f4f59a63-0030-49ca-8551-43fc88282917")\u000d\u000a    (attr smd)\u000d\u000a    (fp_text reference "C14" (at 1.553 -1.686 unlocked) (layer "F.SilkS")\u000d\u000a      (effects (font (size 0.6 0.6) (thickness 0.15)))\u000d\u000a      (tstamp ad482dcc-556d-47b3-8f11-db379b97a1cd)\u000d\u000a    )\u000d\u000a    (fp_text value "4.7uF" (at 0 1.43 90 unlocked) (layer "F.Fab")\u000d\u000a      (effects (font (size 0.6 0.6) (thickness 0.15)))\u000d\u000a      (tstamp 46f31930-0db4-4a3f-b435-7d71f24c1414)\u000d\u000a    )\u000d\u000a    (fp_text user "${REFERENCE}" (at 0 0 90) (layer "F.Fab")\u000d\u000a      (effects (font (size 0.4 0.4) (thickness 0.06)))\u000d\u000a      (tstamp 2785afa8-937c-4b13-95d3-5eafd3c56d37)\u000d\u000a    )\u000d\u000a    (fp_line (start -0.14058 0.51) (end 0.14058 0.51) (layer "F.SilkS") (width 0.12) (tstamp 03287037-95a8-459f-a364-b046607a1198))\u000d\u000a    (fp_line (start -0.14058 -0.51) (end 0.14058 -0.51) (layer "F.SilkS") (width 0.12) (tstamp d165f718-6a2b-450a-81f8-7b4a60b88f91))\u000d\u000a    (fp_line (start 1.48 0.73) (end -1.48 0.73) (layer "F.CrtYd") (width 0.05) (tstamp 1177d649-ae01-4dd8-a98e-c4208480927b))\u000d\u000a    (fp_line (start -1.48 -0.73) (end 1.48 -0.73) (layer "F.CrtYd") (width 0.05) (tstamp 5b589a37-830a-4012-9c23-d0dfbbe84165))\u000d\u000a    (fp_line (start -1.48 0.73) (end -1.48 -0.73) (layer "F.CrtYd") (width 0.05) (tstamp fa559289-6051-4e25-abf9-e1f68795480d))\u000d\u000a    (fp_line (start 1.48 -0.73) (end 1.48 0.73) (layer "F.CrtYd") (width 0.05) (tstamp fce1cf48-4233-4650-ae50-1d6744b408e9))\u000d\u000a    (fp_line (start -0.8 0.4) (end -0.8 -0.4) (layer "F.Fab") (width 0.1) (tstamp 59e9b956-31f0-4ee8-80a8-4f30fe2ee0f6))\u000d\u000a    (fp_line (start -0.8 -0.4) (end 0.8 -0.4) (layer "F.Fab") (width 0.1) (tstamp 6eea2a9a-72da-4a7c-9f44-ac9b3832b32d))\u000d\u000a    (fp_line (start 0.8 -0.4) (end 0.8 0.4) (layer "F.Fab") (width 0.1) (tstamp a4bfcc75-ab53-4f2b-ab66-dae53b9b4990))\u000d\u000a    (fp_line (start 0.8 0.4) (end -0.8 0.4) (layer "F.Fab") (width 0.1) (tstamp de9fdadf-99b4-4fdc-832a-9b8c0787ac25))\u000d\u000a    (pad "1" smd roundrect (at -0.775 0 90) (size 0.9 0.95) (layers "F.Cu" "F.Paste" "F.Mask") (roundrect_rratio 0.25)\u000d\u000a      (net 4 "+5V") (pintype "passive") (tstamp 25b0db9e-d3d4-46f7-ad89-5e2d84e9cd94))\u000d\u000a    (pad "2" smd roundrect (at 0.775 0 90) (size 0.9 0.95) (layers "F.Cu" "F.Paste" "F.Mask") (roundrect_rratio 0.25)\u000d\u000a      (net 1 "GND") (pintype "passive") (tstamp 8de87069-d247-4981-ac1b-2109c8529cb7))\u000d\u000a    (model "${KICAD6_3DMODEL_DIR}/Capacitor_SMD.3dshapes/C_0603_1608Metric.wrl"\u000d\u000a      (offset (xyz 0 0 0))\u000d\u000a      (scale (xyz 1 1 1))\u000d\u000a      (rotate (xyz 0 0 0))\u000d\u000a    )\u000d\u000a  )\u000d\u000a\u000d\u000a  (footprint "Resistor_SMD:R_0402_1005Metric_Pad0.72x0.64mm_HandSolder" (layer "F.Cu")\u000d\u000a    (tedit 5F6BB9E0) (tstamp 8b69406a-c54b-4477-99f3-a9d899687f28)\u000d\u000a    (at 163.322 82.423)\u000d\u000a    (descr "Resistor SMD 0402 (1005 Metric), square (rectangular) end terminal, IPC_7351 nominal with elongated pad for handsoldering. (Body size source: IPC-SM-782 page 72, https://www.pcb-3d.com/wordpress/wp-content/uploads/ipc-sm-782a_amendment_1_and_2.pdf), generated with kicad-footprint-generator")\u000d\u000a    (tags "resistor handsolder")\u000d\u000a    (property "Sheetfile" "File: power.kicad_sch")\u000d\u000a    (property "Sheetname" "POWER")\u000d\u000a    (path "/15ef381a-403b-4e16-bdb3-d63c11fd81a5/591abf9a-083a-4df3-b8b3-9c604c877ca1")\u000d\u000a    (attr smd)\u000d\u000a    (fp_text reference "R8" (at 2.032 0 unlocked) (layer "F.SilkS")\u000d\u000a      (effects (font (size 0.6 0.6) (thickness 0.15)))\u000d\u000a      (tstamp 3ee6388f-414a-41cf-a272-90dda0b1fc55)\u000d\u000a    )\u000d\u000a    (fp_text value "20" (at 0 1.17 unlocked) (layer "F.Fab")\u000d\u000a      (effects (font (size 0.6 0.6) (thickness 0.15)))\u000d\u000a      (tstamp 99eccab8-168e-48dc-b0d7-78f7f4f0916c)\u000d\u000a    )\u000d\u000a    (fp_text user "${REFERENCE}" (at 0 0) (layer "F.Fab")\u000d\u000a      (effects (font (size 0.26 0.26) (thickness 0.04)))\u000d\u000a      (tstamp 03ef27c1-cc79-4791-9aab-5b7ef7f0e829)\u000d\u000a    )\u000d\u000a    (fp_line (start -0.167621 0.38) (end 0.167621 0.38) (layer "F.SilkS") (width 0.12) (tstamp 52e8e189-71e1-41b2-ae11-47404d521c0b))\u000d\u000a    (fp_line (start -0.167621 -0.38) (end 0.167621 -0.38) (layer "F.SilkS") (width 0.12) (tstamp d557d5f9-56d6-47b9-bfde-b69bfa9ab591))\u000d\u000a    (fp_line (start -1.1 0.47) (end -1.1 -0.47) (layer "F.CrtYd") (width 0.05) (tstamp 1f9dcba0-2909-4c00-a93e-a234e51707e9))\u000d\u000a    (fp_line (start 1.1 0.47) (end -1.1 0.47) (layer "F.CrtYd") (width 0.05) (tstamp 4d00b0a4-4d4a-42eb-9d31-fc1d95a8d8d3))\u000d\u000a    (fp_line (start 1.1 -0.47) (end 1.1 0.47) (layer "F.CrtYd") (width 0.05) (tstamp 575f1973-96da-4ed5-b474-9bb9c17e1c1c))\u000d\u000a    (fp_line (start -1.1 -0.47) (end 1.1 -0.47) (layer "F.CrtYd") (width 0.05) (tstamp 61b58c5c-8f4e-4dec-827e-f8c2f277c9de))\u000d\u000a    (fp_line (start -0.525 -0.27) (end 0.525 -0.27) (layer "F.Fab") (width 0.1) (tstamp 07fbed87-3461-46c0-a4c1-ad4741a55be3))\u000d\u000a    (fp_line (start 0.525 0.27) (end -0.525 0.27) (layer "F.Fab") (width 0.1) (tstamp 18011af7-0a2f-4dc3-a4b8-53b3427fa10a))\u000d\u000a    (fp_line (start -0.525 0.27) (end -0.525 -0.27) (layer "F.Fab") (width 0.1) (tstamp 321a3cc6-9317-4333-9fe0-7258503b2bca))\u000d\u000a    (fp_line (start 0.525 -0.27) (end 0.525 0.27) (layer "F.Fab") (width 0.1) (tstamp 67d7c026-b715-4818-be09-f78cb63fe676))\u000d\u000a    (pad "1" smd roundrect (at -0.5975 0) (size 0.715 0.64) (layers "F.Cu" "F.Paste" "F.Mask") (roundrect_rratio 0.25)\u000d\u000a      (net 10 "Net-(IC3-Pad5)") (pintype "passive") (tstamp 71b5116b-19b3-48f0-b5f2-6049d304cc17))\u000d\u000a    (pad "2" smd roundrect (at 0.5975 0) (size 0.715 0.64) (layers "F.Cu" "F.Paste" "F.Mask") (roundrect_rratio 0.25)\u000d\u000a      (net 17 "Net-(C19-Pad1)") (pintype "passive") (tstamp 55a16070-49aa-49a0-bac7-b6daf554bf15))\u000d\u000a    (model "${KICAD6_3DMODEL_DIR}/Resistor_SMD.3dshapes/R_0402_1005Metric.wrl"\u000d\u000a      (offset (xyz 0 0 0))\u000d\u000a      (scale (xyz 1 1 1))\u000d\u000a      (rotate (xyz 0 0 0))\u000d\u000a    )\u000d\u000a  )\u000d\u000a\u000d\u000a  (footprint "Resistor_SMD:R_0402_1005Metric_Pad0.72x0.64mm_HandSolder" (layer "F.Cu")\u000d\u000a    (tedit 5F6BB9E0) (tstamp a3471c5f-7d4a-4f76-a4ae-0b8ca5c0d8ab)\u000d\u000a    (at 163.322 81.153)\u000d\u000a    (descr "Resistor SMD 0402 (1005 Metric), square (rectangular) end terminal, IPC_7351 nominal with elongated pad for handsoldering. (Body size source: IPC-SM-782 page 72, https://www.pcb-3d.com/wordpress/wp-content/uploads/ipc-sm-782a_amendment_1_and_2.pdf), generated with kicad-footprint-generator")\u000d\u000a    (tags "resistor handsolder")\u000d\u000a    (property "Sheetfile" "File: power.kicad_sch")\u000d\u000a    (property "Sheetname" "POWER")\u000d\u000a    (path "/15ef381a-403b-4e16-bdb3-d63c11fd81a5/8fc3d4a2-782f-46b6-80e1-d2b1cc2aa345")\u000d\u000a    (attr smd)\u000d\u000a    (fp_text reference "R7" (at 2.032 0 unlocked) (layer "F.SilkS")\u000d\u000a      (effects (font (size 0.6 0.6) (thickness 0.15)))\u000d\u000a      (tstamp dcc661fd-2833-4fd5-b29c-e306a23087b0)\u000d\u000a    )\u000d\u000a    (fp_text value "200k" (at 0 1.17 unlocked) (layer "F.Fab")\u000d\u000a      (effects (font (size 0.6 0.6) (thickness 0.15)))\u000d\u000a      (tstamp 7a5474c5-9332-409b-9df1-b71827737e8b)\u000d\u000a    )\u000d\u000a    (fp_text user "${REFERENCE}" (at 0 0) (layer "F.Fab")\u000d\u000a      (effects (font (size 0.26 0.26) (thickness 0.04)))\u000d\u000a      (tstamp ff5e1be6-e885-47bf-a2fb-5ba0f4ad3d0e)\u000d\u000a    )\u000d\u000a    (fp_line (start -0.167621 -0.38) (end 0.167621 -0.38) (layer "F.SilkS") (width 0.12) (tstamp 477b4dca-6291-465c-9671-b48e0e8d17c1))\u000d\u000a    (fp_line (start -0.167621 0.38) (end 0.167621 0.38) (layer "F.SilkS") (width 0.12) (tstamp 776f87df-30c1-429e-9717-38ed128c3045))\u000d\u000a    (fp_line (start 1.1 0.47) (end -1.1 0.47) (layer "F.CrtYd") (width 0.05) (tstamp 10dfd305-a444-4bec-806e-d3f73aa4eee9))\u000d\u000a    (fp_line (start -1.1 -0.47) (end 1.1 -0.47) (layer "F.CrtYd") (width 0.05) (tstamp 2ebd993e-fb02-4ecb-9b80-41b6c1bad588))\u000d\u000a    (fp_line (start 1.1 -0.47) (end 1.1 0.47) (layer "F.CrtYd") (width 0.05) (tstamp 7366237d-fcb8-4352-a74b-2554334582f2))\u000d\u000a    (fp_line (start -1.1 0.47) (end -1.1 -0.47) (layer "F.CrtYd") (width 0.05) (tstamp f4eaddac-8942-4bb9-84ee-3f71f0504cd0))\u000d\u000a    (fp_line (start -0.525 0.27) (end -0.525 -0.27) (layer "F.Fab") (width 0.1) (tstamp 70c1e1f3-cf37-44b0-922d-f2737f6c813a))\u000d\u000a    (fp_line (start 0.525 -0.27) (end 0.525 0.27) (layer "F.Fab") (width 0.1) (tstamp ab2c66c8-50ff-4cb4-b2b8-b41a210385e3))\u000d\u000a    (fp_line (start 0.525 0.27) (end -0.525 0.27) (layer "F.Fab") (width 0.1) (tstamp c7389219-5058-4f31-95a4-8787577af757))\u000d\u000a    (fp_line (start -0.525 -0.27) (end 0.525 -0.27) (layer "F.Fab") (width 0.1) (tstamp f0286423-b55d-466f-b772-93267b80e528))\u000d\u000a    (pad "1" smd roundrect (at -0.5975 0) (size 0.715 0.64) (layers "F.Cu" "F.Paste" "F.Mask") (roundrect_rratio 0.25)\u000d\u000a      (net 11 "Net-(IC3-Pad6)") (pintype "passive") (tstamp b91af253-d473-472e-84bb-0b9766e76a07))\u000d\u000a    (pad "2" smd roundrect (at 0.5975 0) (size 0.715 0.64) (layers "F.Cu" "F.Paste" "F.Mask") (roundrect_rratio 0.25)\u000d\u000a      (net 3 "+12V") (pintype "passive") (tstamp a50d140a-7935-47e2-b1b6-be8d1a4c51ec))\u000d\u000a    (model "${KICAD6_3DMODEL_DIR}/Resistor_SMD.3dshapes/R_0402_1005Metric.wrl"\u000d\u000a      (offset (xyz 0 0 0))\u000d\u000a      (scale (xyz 1 1 1))\u000d\u000a      (rotate (xyz 0 0 0))\u000d\u000a    )\u000d\u000a  )\u000d\u000a\u000d\u000a  (footprint "Capacitor_SMD:C_0402_1005Metric_Pad0.74x0.62mm_HandSolder" (layer "F.Cu")\u000d\u000a    (tedit 5F6BB22C) (tstamp aa4e4574-a485-496f-acd3-ca211153d89b)\u000d\u000a    (at 159.3175 78.867 180)\u000d\u000a    (descr "Capacitor SMD 0402 (1005 Metric), square (rectangular) end terminal, IPC_7351 nominal with elongated pad for handsoldering. (Body size source: IPC-SM-782 page 76, https://www.pcb-3d.com/wordpress/wp-content/uploads/ipc-sm-782a_amendment_1_and_2.pdf), generated with kicad-footprint-generator")\u000d\u000a    (tags "capacitor handsolder")\u000d\u000a    (property "Sheetfile" "File: power.kicad_sch")\u000d\u000a    (property "Sheetname" "POWER")\u000d\u000a    (path "/15ef381a-403b-4e16-bdb3-d63c11fd81a5/b5b3b476-d33c-4ea9-a66f-fcefff898d81")\u000d\u000a    (attr smd)\u000d\u000a    (fp_text reference "C16" (at 1.6343 -0.127 90 unlocked) (layer "F.SilkS")\u000d\u000a      (effects (font (size 0.6 0.6) (thickness 0.15)))\u000d\u000a      (tstamp f8c5cb06-c07b-4eac-af1f-6f09fe61e5ad)\u000d\u000a    )\u000d\u000a    (fp_text value "1nF" (at 0 1.16 180 unlocked) (layer "F.Fab")\u000d\u000a      (effects (font (size 0.6 0.6) (thickness 0.15)))\u000d\u000a      (tstamp ec1ac894-6af2-424f-bbe7-902e256b4a7f)\u000d\u000a    )\u000d\u000a    (fp_text user "${REFERENCE}" (at 0 0) (layer "F.Fab")\u000d\u000a      (effects (font (size 0.25 0.25) (thickness 0.04)))\u000d\u000a      (tstamp a43fe590-6b5f-47dc-9b81-b74ab5509d8f)\u000d\u000a    )\u000d\u000a    (fp_line (start -0.115835 -0.36) (end 0.115835 -0.36) (layer "F.SilkS") (width 0.12) (tstamp d40714a5-31e3-4f39-b0f8-3d158d0d4086))\u000d\u000a    (fp_line (start -0.115835 0.36) (end 0.115835 0.36) (layer "F.SilkS") (width 0.12) (tstamp f9b9746b-47c9-4af9-9493-0116ad4a118f))\u000d\u000a    (fp_line (start 1.08 -0.46) (end 1.08 0.46) (layer "F.CrtYd") (width 0.05) (tstamp 352d7821-c275-42de-8f30-b75bfa51914d))\u000d\u000a    (fp_line (start -1.08 0.46) (end -1.08 -0.46) (layer "F.CrtYd") (width 0.05) (tstamp 8ec8e24f-370a-44f5-ba21-47cd808b43cc))\u000d\u000a    (fp_line (start -1.08 -0.46) (end 1.08 -0.46) (layer "F.CrtYd") (width 0.05) (tstamp afff825b-90fe-4803-bc89-92185f3a484d))\u000d\u000a    (fp_line (start 1.08 0.46) (end -1.08 0.46) (layer "F.CrtYd") (width 0.05) (tstamp ee3e24b2-047a-4f45-b9c3-2c2bef714ccd))\u000d\u000a    (fp_line (start -0.5 -0.25) (end 0.5 -0.25) (layer "F.Fab") (width 0.1) (tstamp 0369b4eb-e958-4810-8ca1-2b1621fa2ee0))\u000d\u000a    (fp_line (start 0.5 0.25) (end -0.5 0.25) (layer "F.Fab") (width 0.1) (tstamp 273fe639-9067-41fd-87b5-02aaaf2d606f))\u000d\u000a    (fp_line (start 0.5 -0.25) (end 0.5 0.25) (layer "F.Fab") (width 0.1) (tstamp 6d997dba-05a9-4142-8f7f-bb9512cd7c67))\u000d\u000a    (fp_line (start -0.5 0.25) (end -0.5 -0.25) (layer "F.Fab") (width 0.1) (tstamp 9e6ae1d3-dd86-4398-b775-2df9a2a9604b))\u000d\u000a    (pad "1" smd roundrect (at -0.5675 0 180) (size 0.735 0.62) (layers "F.Cu" "F.Paste" "F.Mask") (roundrect_rratio 0.25)\u000d\u000a      (net 1 "GND") (pintype "passive") (tstamp 6147fec7-a81e-45c1-b298-63abf4e92bef))\u000d\u000a    (pad "2" smd roundrect (at 0.5675 0 180) (size 0.735 0.62) (layers "F.Cu" "F.Paste" "F.Mask") (roundrect_rratio 0.25)\u000d\u000a      (net 8 "/POWER/PG3V3") (pintype "passive") (tstamp c987c9c1-2c86-4be8-93b3-4ac31ff70b10))\u000d\u000a    (model "${KICAD6_3DMODEL_DIR}/Capacitor_SMD.3dshapes/C_0402_1005Metric.wrl"\u000d\u000a      (offset (xyz 0 0 0))\u000d\u000a      (scale (xyz 1 1 1))\u000d\u000a      (rotate (xyz 0 0 0))\u000d\u000a    )\u000d\u000a  )\u000d\u000a\u000d\u000a  (footprint "Inductor_SMD:L_Vishay_IHLP-1616" (layer "F.Cu")\u000d\u000a    (tedit 5990349D) (tstamp aebcbb4e-afb3-4dfe-841a-ce020778d8de)\u000d\u000a    (at 154.559 81.03875 90)\u000d\u000a    (descr "Inductor, Vishay, IHLP series, 4.1mmx4.1mm")\u000d\u000a    (tags "inductor vishay ihlp smd")\u000d\u000a    (property "Sheetfile" "File: power.kicad_sch")\u000d\u000a    (property "Sheetname" "POWER")\u000d\u000a    (path "/15ef381a-403b-4e16-bdb3-d63c11fd81a5/f2bbb474-2e24-4e6a-8397-56742010ac78")\u000d\u000a    (attr smd)\u000d\u000a    (fp_text reference "L2" (at -3.23845 3.0734 unlocked) (layer "F.SilkS")\u000d\u000a      (effects (font (size 0.6 0.6) (thickness 0.15)))\u000d\u000a      (tstamp f37d374d-11e8-435a-b622-0f037dd120a7)\u000d\u000a    )\u000d\u000a    (fp_text value "2.2uH" (at 0 3.532 90 unlocked) (layer "F.Fab")\u000d\u000a      (effects (font (size 0.6 0.6) (thickness 0.15)))\u000d\u000a      (tstamp b1c1ba98-d590-446a-b86c-3432abd48953)\u000d\u000a    )\u000d\u000a    (fp_text user "${REFERENCE}" (at 0 0 90) (layer "F.Fab")\u000d\u000a      (effects (font (size 1 1) (thickness 0.15)))\u000d\u000a      (tstamp 356f56b1-1a55-43ca-a42d-ddf6ac2ef9e0)\u000d\u000a    )\u000d\u000a    (fp_line (start -2.132 2.132) (end 2.132 2.132) (layer "F.SilkS") (width 0.12) (tstamp 01637ce8-93b8-4183-aae0-85d1b22a1f7d))\u000d\u000a    (fp_line (start 2.132 -2.132) (end 2.132 -1.443) (layer "F.SilkS") (width 0.12) (tstamp 10c03c36-06b0-4ecb-b8ef-382c4d4aebff))\u000d\u000a    (fp_line (start -2.132 -2.132) (end 2.132 -2.132) (layer "F.SilkS") (width 0.12) (tstamp 89986da7-4fb1-4c67-8528-eff96605de01))\u000d\u000a    (fp_line (start -2.132 1.443) (end -2.132 2.132) (layer "F.SilkS") (width 0.12) (tstamp a7cbd1bb-b871-43d7-aea9-15008f5cd7e7))\u000d\u000a    (fp_line (start 2.132 2.132) (end 2.132 1.443) (layer "F.SilkS") (width 0.12) (tstamp b319f450-68a6-445a-a21a-2eacc2e7f439))\u000d\u000a    (fp_line (start -2.132 -1.443) (end -2.132 -2.132) (layer "F.SilkS") (width 0.12) (tstamp cbf9c098-f4e1-4f15-9446-d1abe4829ce2))\u000d\u000a    (fp_line (start 3.1 2.3) (end 3.1 -2.3) (layer "F.CrtYd") (width 0.05) (tstamp 59cd3966-dafc-4adc-9682-7963ac70eea1))\u000d\u000a    (fp_line (start -3.1 2.3) (end 3.1 2.3) (layer "F.CrtYd") (width 0.05) (tstamp c3e67706-0ee4-46a6-aa4c-0798ae3148ad))\u000d\u000a    (fp_line (start 3.1 -2.3) (end -3.1 -2.3) (layer "F.CrtYd") (width 0.05) (tstamp c72f03ec-c045-49a9-9715-8dd9d11a3aa1))\u000d\u000a    (fp_line (start -3.1 -2.3) (end -3.1 2.3) (layer "F.CrtYd") (width 0.05) (tstamp e3463854-439f-4a45-9048-b46da3df7127))\u000d\u000a    (fp_line (start -2.032 -2.032) (end -2.032 2.032) (layer "F.Fab") (width 0.1) (tstamp 4a4f2e13-5746-4373-9870-95277525b676))\u000d\u000a    (fp_line (start -2.032 2.032) (end 2.032 2.032) (layer "F.Fab") (width 0.1) (tstamp 5e2c0f92-9aa2-4939-8841-c8aa285db611))\u000d\u000a    (fp_line (start 2.032 -2.032) (end -2.032 -2.032) (layer "F.Fab") (width 0.1) (tstamp 9a7b0a0f-9931-4527-86c0-fa5341670818))\u000d\u000a    (fp_line (start 2.032 2.032) (end 2.032 -2.032) (layer "F.Fab") (width 0.1) (tstamp c5aa2e4e-75bd-4cc2-8895-bae3073eb427))\u000d\u000a    (pad "1" smd rect (at -1.89225 0 90) (size 1.8545 2.286) (layers "F.Cu" "F.Paste" "F.Mask")\u000d\u000a      (net 9 "Net-(C19-Pad2)") (pintype "passive") (tstamp 697eb288-e499-4455-a711-fced45682a60))\u000d\u000a    (pad "2" smd rect (at 1.89225 0 90) (size 1.8545 2.286) (layers "F.Cu" "F.Paste" "F.Mask")\u000d\u000a      (net 2 "+3.3V") (pintype "passive") (tstamp d78dbfe0-5740-4df0-af19-3006202fbc18))\u000d\u000a    (model "${KICAD6_3DMODEL_DIR}/Inductor_SMD.3dshapes/L_Vishay_IHLP-1616.wrl"\u000d\u000a      (offset (xyz 0 0 0))\u000d\u000a      (scale (xyz 1 1 1))\u000d\u000a      (rotate (xyz 0 0 0))\u000d\u000a    )\u000d\u000a  )\u000d\u000a\u000d\u000a  (footprint "Capacitor_SMD:C_0402_1005Metric_Pad0.74x0.62mm_HandSolder" (layer "F.Cu")\u000d\u000a    (tedit 5F6BB22C) (tstamp b1f073e8-a135-4a7b-96c9-74a8d6b50cfe)\u000d\u000a    (at 152.9588 77.0636)\u000d\u000a    (descr "Capacitor SMD 0402 (1005 Metric), square (rectangular) end terminal, IPC_7351 nominal with elongated pad for handsoldering. (Body size source: IPC-SM-782 page 76, https://www.pcb-3d.com/wordpress/wp-content/uploads/ipc-sm-782a_amendment_1_and_2.pdf), generated with kicad-footprint-generator")\u000d\u000a    (tags "capacitor handsolder")\u000d\u000a    (property "Sheetfile" "File: power.kicad_sch")\u000d\u000a    (property "Sheetname" "POWER")\u000d\u000a    (path "/15ef381a-403b-4e16-bdb3-d63c11fd81a5/b0c8fd03-9754-470e-ba3a-4f2a748ab263")\u000d\u000a    (attr smd)\u000d\u000a    (fp_text reference "C22" (at -2.7432 0.0508 unlocked) (layer "F.SilkS")\u000d\u000a      (effects (font (size 0.6 0.6) (thickness 0.15)))\u000d\u000a      (tstamp 74ace24e-3e0a-447f-a54e-2421c41f47f4)\u000d\u000a    )\u000d\u000a    (fp_text value "22uF" (at 0 1.16 unlocked) (layer "F.Fab")\u000d\u000a      (effects (font (size 0.6 0.6) (thickness 0.15)))\u000d\u000a      (tstamp d3b5a686-b05c-419d-b38f-46d587d306b1)\u000d\u000a    )\u000d\u000a    (fp_text user "${REFERENCE}" (at 0 0) (layer "F.Fab")\u000d\u000a      (effects (font (size 0.25 0.25) (thickness 0.04)))\u000d\u000a      (tstamp 16d39537-0e39-4c84-9b9f-017f65236fad)\u000d\u000a    )\u000d\u000a    (fp_line (start -0.115835 0.36) (end 0.115835 0.36) (layer "F.SilkS") (width 0.12) (tstamp b528782f-8558-4bcc-8a9b-f2662aa93a15))\u000d\u000a    (fp_line (start -0.115835 -0.36) (end 0.115835 -0.36) (layer "F.SilkS") (width 0.12) (tstamp edf3e05c-8847-43c4-a78e-7755bc4513aa))\u000d\u000a    (fp_line (start 1.08 -0.46) (end 1.08 0.46) (layer "F.CrtYd") (width 0.05) (tstamp 55c93dab-2a60-46de-bee1-e7cad056ebc4))\u000d\u000a    (fp_line (start -1.08 -0.46) (end 1.08 -0.46) (layer "F.CrtYd") (width 0.05) (tstamp 7cfeeb8b-1170-407a-8346-9af87d3d95ef))\u000d\u000a    (fp_line (start 1.08 0.46) (end -1.08 0.46) (layer "F.CrtYd") (width 0.05) (tstamp 7d004f64-608a-4327-945b-60d820ab5e72))\u000d\u000a    (fp_line (start -1.08 0.46) (end -1.08 -0.46) (layer "F.CrtYd") (width 0.05) (tstamp a5d01259-7ae0-4b22-8887-3283cbb3934b))\u000d\u000a    (fp_line (start 0.5 -0.25) (end 0.5 0.25) (layer "F.Fab") (width 0.1) (tstamp 128cbe08-38d5-48d4-b8db-8424e7dfe442))\u000d\u000a    (fp_line (start -0.5 -0.25) (end 0.5 -0.25) (layer "F.Fab") (width 0.1) (tstamp 212058a1-b295-4467-a16b-84dde6cedd92))\u000d\u000a    (fp_line (start 0.5 0.25) (end -0.5 0.25) (layer "F.Fab") (width 0.1) (tstamp 23254987-690f-4a62-b026-05734e61e30e))\u000d\u000a    (fp_line (start -0.5 0.25) (end -0.5 -0.25) (layer "F.Fab") (width 0.1) (tstamp a9f871eb-6ced-47a8-af1e-879a7f556c78))\u000d\u000a    (pad "1" smd roundrect (at -0.5675 0) (size 0.735 0.62) (layers "F.Cu" "F.Paste" "F.Mask") (roundrect_rratio 0.25)\u000d\u000a      (net 1 "GND") (pintype "passive") (tstamp a03f02e9-0898-4d5f-b9b1-219d1791f0aa))\u000d\u000a    (pad "2" smd roundrect (at 0.5675 0) (size 0.735 0.62) (layers "F.Cu" "F.Paste" "F.Mask") (roundrect_rratio 0.25)\u000d\u000a      (net 2 "+3.3V") (pintype "passive") (tstamp cde79f4d-f337-4233-b465-ff36e8a02d59))\u000d\u000a    (model "${KICAD6_3DMODEL_DIR}/Capacitor_SMD.3dshapes/C_0402_1005Metric.wrl"\u000d\u000a      (offset (xyz 0 0 0))\u000d\u000a      (scale (xyz 1 1 1))\u000d\u000a      (rotate (xyz 0 0 0))\u000d\u000a    )\u000d\u000a  )\u000d\u000a\u000d\u000a  (footprint "Package_TO_SOT_SMD:SOT-23" (layer "F.Cu")\u000d\u000a    (tedit 5FA16958) (tstamp c06956af-8e82-4a3c-adac-9b0915dcc4ae)\u000d\u000a    (at 159.7914 70.0786 90)\u000d\u000a    (descr "SOT, 3 Pin (https://www.jedec.org/system/files/docs/to-236h.pdf variant AB), generated with kicad-footprint-generator ipc_gullwing_generator.py")\u000d\u000a    (tags "SOT TO_SOT_SMD")\u000d\u000a    (property "Sheetfile" "File: power.kicad_sch")\u000d\u000a    (property "Sheetname" "POWER")\u000d\u000a    (path "/15ef381a-403b-4e16-bdb3-d63c11fd81a5/6559bf52-abc5-40db-a8fe-4ce954cc5fcc")\u000d\u000a    (attr smd)\u000d\u000a    (fp_text reference "Q1" (at 2.6416 -1.016 unlocked) (layer "F.SilkS")\u000d\u000a      (effects (font (size 0.6 0.6) (thickness 0.15)))\u000d\u000a      (tstamp 1618bc14-e8e8-4222-bdd3-571fde0b6c40)\u000d\u000a    )\u000d\u000a    (fp_text value "AO3401A" (at 0 2.4 90 unlocked) (layer "F.Fab")\u000d\u000a      (effects (font (size 0.6 0.6) (thickness 0.15)))\u000d\u000a      (tstamp a5b6215c-ede5-4801-8190-309cb00519b3)\u000d\u000a    )\u000d\u000a    (fp_text user "${REFERENCE}" (at 0 0 90) (layer "F.Fab")\u000d\u000a      (effects (font (size 0.32 0.32) (thickness 0.05)))\u000d\u000a      (tstamp ae14e819-0f54-4d50-a550-a8bbfc2deb65)\u000d\u000a    )\u000d\u000a    (fp_line (start 0 -1.56) (end 0.65 -1.56) (layer "F.SilkS") (width 0.12) (tstamp 11b79097-e0ab-417b-8b84-9f2d13f14389))\u000d\u000a    (fp_line (start 0 -1.56) (end -1.675 -1.56) (layer "F.SilkS") (width 0.12) (tstamp 9d8f417c-704f-4519-bf0e-eb022502b1c1))\u000d\u000a    (fp_line (start 0 1.56) (end -0.65 1.56) (layer "F.SilkS") (width 0.12) (tstamp dbf32f09-6f77-4060-b41b-9b26df30b777))\u000d\u000a    (fp_line (start 0 1.56) (end 0.65 1.56) (layer "F.SilkS") (width 0.12) (tstamp fa7110f8-8039-4451-bb51-3d6f3913ba04))\u000d\u000a    (fp_line (start 1.92 -1.7) (end -1.92 -1.7) (layer "F.CrtYd") (width 0.05) (tstamp 381384f1-fdb9-4023-9ad8-d58f30e1a58e))\u000d\u000a    (fp_line (start 1.92 1.7) (end 1.92 -1.7) (layer "F.CrtYd") (width 0.05) (tstamp 83cc111c-b2d5-455b-9d2f-d197177c98c9))\u000d\u000a    (fp_line (start -1.92 -1.7) (end -1.92 1.7) (layer "F.CrtYd") (width 0.05) (tstamp 95fc1b4e-2408-407f-b901-80d2697682f0))\u000d\u000a    (fp_line (start -1.92 1.7) (end 1.92 1.7) (layer "F.CrtYd") (width 0.05) (tstamp a6d3a12f-ee52-4197-8897-5d802f386aa1))\u000d\u000a    (fp_line (start -0.325 -1.45) (end 0.65 -1.45) (layer "F.Fab") (width 0.1) (tstamp 0e5990d8-b98a-4da6-95db-1d6e06746f49))\u000d\u000a    (fp_line (start -0.65 -1.125) (end -0.325 -1.45) (layer "F.Fab") (width 0.1) (tstamp 168ca47c-bd1d-45e8-9515-155bfda35a67))\u000d\u000a    (fp_line (start 0.65 -1.45) (end 0.65 1.45) (layer "F.Fab") (width 0.1) (tstamp 1dafe3d3-6dfc-43a3-80ce-4d6b3856de4f))\u000d\u000a    (fp_line (start 0.65 1.45) (end -0.65 1.45) (layer "F.Fab") (width 0.1) (tstamp 275174b7-d4a0-44bb-9b20-8440805a27cf))\u000d\u000a    (fp_line (start -0.65 1.45) (end -0.65 -1.125) (layer "F.Fab") (width 0.1) (tstamp ef5fdfd2-71e6-4fa8-9267-a5cb83d37e02))\u000d\u000a    (pad "1" smd roundrect (at -0.9375 -0.95 90) (size 1.475 0.6) (layers "F.Cu" "F.Paste" "F.Mask") (roundrect_rratio 0.25)\u000d\u000a      (net 1 "GND") (pinfunction "G") (pintype "input") (tstamp 5c4db902-319b-4ec9-8a38-9d87ae5ff9d2))\u000d\u000a    (pad "2" smd roundrect (at -0.9375 0.95 90) (size 1.475 0.6) (layers "F.Cu" "F.Paste" "F.Mask") (roundrect_rratio 0.25)\u000d\u000a      (net 5 "Net-(F1-Pad2)") (pinfunction "S") (pintype "passive") (tstamp 5d8ed7a7-db52-46e1-844d-d3dde99cdf1e))\u000d\u000a    (pad "3" smd roundrect (at 0.9375 0 90) (size 1.475 0.6) (layers "F.Cu" "F.Paste" "F.Mask") (roundrect_rratio 0.25)\u000d\u000a      (net 14 "12V_CONN") (pinfunction "D") (pintype "passive") (tstamp a5ba7dc7-09b0-4738-ac12-030ee103363a))\u000d\u000a    (model "${KICAD6_3DMODEL_DIR}/Package_TO_SOT_SMD.3dshapes/SOT-23.wrl"\u000d\u000a      (offset (xyz 0 0 0))\u000d\u000a      (scale (xyz 1 1 1))\u000d\u000a      (rotate (xyz 0 0 0))\u000d\u000a    )\u000d\u000a  )\u000d\u000a\u000d\u000a  (footprint "Capacitor_SMD:C_0402_1005Metric_Pad0.74x0.62mm_HandSolder" (layer "F.Cu")\u000d\u000a    (tedit 5F6BB22C) (tstamp c5b6b4cd-c83f-4565-abb2-0d88bcecc46e)\u000d\u000a    (at 163.2625 74.8284 180)\u000d\u000a    (descr "Capacitor SMD 0402 (1005 Metric), square (rectangular) end terminal, IPC_7351 nominal with elongated pad for handsoldering. (Body size source: IPC-SM-782 page 76, https://www.pcb-3d.com/wordpress/wp-content/uploads/ipc-sm-782a_amendment_1_and_2.pdf), generated with kicad-footprint-generator")\u000d\u000a    (tags "capacitor handsolder")\u000d\u000a    (property "Sheetfile" "File: power.kicad_sch")\u000d\u000a    (property "Sheetname" "POWER")\u000d\u000a    (path "/15ef381a-403b-4e16-bdb3-d63c11fd81a5/97908419-7535-45a1-8d80-d38c12b7c6de")\u000d\u000a    (attr smd)\u000d\u000a    (fp_text reference "C20" (at -2.286 0 unlocked) (layer "F.SilkS")\u000d\u000a      (effects (font (size 0.6 0.6) (thickness 0.15)))\u000d\u000a      (tstamp 1b041091-55a2-43e1-9dba-2fb80cca0f44)\u000d\u000a    )\u000d\u000a    (fp_text value "10pF" (at 0 1.16 180 unlocked) (layer "F.Fab")\u000d\u000a      (effects (font (size 0.6 0.6) (thickness 0.15)))\u000d\u000a      (tstamp 31d46451-87aa-4cdd-ae85-c09be24eb607)\u000d\u000a    )\u000d\u000a    (fp_text user "${REFERENCE}" (at 0 0) (layer "F.Fab")\u000d\u000a      (effects (font (size 0.25 0.25) (thickness 0.04)))\u000d\u000a      (tstamp 49627c88-a355-4e02-9efc-fbebe096e980)\u000d\u000a    )\u000d\u000a    (fp_line (start -0.115835 0.36) (end 0.115835 0.36) (layer "F.SilkS") (width 0.12) (tstamp 4f17b584-5dbd-442a-b4e3-ecadbe6ad7c0))\u000d\u000a    (fp_line (start -0.115835 -0.36) (end 0.115835 -0.36) (layer "F.SilkS") (width 0.12) (tstamp 75088dbf-b2cf-41ec-afc2-c11392db8139))\u000d\u000a    (fp_line (start 1.08 -0.46) (end 1.08 0.46) (layer "F.CrtYd") (width 0.05) (tstamp 21300d2a-8f71-4e1a-ad41-0da5ecc30409))\u000d\u000a    (fp_line (start -1.08 0.46) (end -1.08 -0.46) (layer "F.CrtYd") (width 0.05) (tstamp 88834df9-1eb8-4136-a9e9-69dd2277d3be))\u000d\u000a    (fp_line (start 1.08 0.46) (end -1.08 0.46) (layer "F.CrtYd") (width 0.05) (tstamp 8b2b7544-8e2c-4681-9127-515f4828c917))\u000d\u000a    (fp_line (start -1.08 -0.46) (end 1.08 -0.46) (layer "F.CrtYd") (width 0.05) (tstamp dd9ee234-37e1-4244-a3cc-1e64c57736f0))\u000d\u000a    (fp_line (start -0.5 -0.25) (end 0.5 -0.25) (layer "F.Fab") (width 0.1) (tstamp 2f6cd0ad-f9eb-4924-86da-8fb12063eae0))\u000d\u000a    (fp_line (start 0.5 0.25) (end -0.5 0.25) (layer "F.Fab") (width 0.1) (tstamp 2fd002d1-bf42-4c9e-8a54-d5ce50fada04))\u000d\u000a    (fp_line (start 0.5 -0.25) (end 0.5 0.25) (layer "F.Fab") (width 0.1) (tstamp 50aaa300-044f-4628-9497-3fe765175df2))\u000d\u000a    (fp_line (start -0.5 0.25) (end -0.5 -0.25) (layer "F.Fab") (width 0.1) (tstamp 7bfdf779-841c-4feb-aa17-5461f6aacf19))\u000d\u000a    (pad "1" smd roundrect (at -0.5675 0 180) (size 0.735 0.62) (layers "F.Cu" "F.Paste" "F.Mask") (roundrect_rratio 0.25)\u000d\u000a      (net 18 "Net-(C20-Pad1)") (pintype "passive") (tstamp 7cdb3100-9a1c-412a-9209-8a609425cc54))\u000d\u000a    (pad "2" smd roundrect (at 0.5675 0 180) (size 0.735 0.62) (layers "F.Cu" "F.Paste" "F.Mask") (roundrect_rratio 0.25)\u000d\u000a      (net 2 "+3.3V") (pintype "passive") (tstamp 1e29d5eb-38a4-49a2-a00a-36145f1998a1))\u000d\u000a    (model "${KICAD6_3DMODEL_DIR}/Capacitor_SMD.3dshapes/C_0402_1005Metric.wrl"\u000d\u000a      (offset (xyz 0 0 0))\u000d\u000a      (scale (xyz 1 1 1))\u000d\u000a      (rotate (xyz 0 0 0))\u000d\u000a    )\u000d\u000a  )\u000d\u000a\u000d\u000a  (footprint "PDMS_Additional:SOTFL50P160X60-8N" (layer "F.Cu")\u000d\u000a    (tedit 0) (tstamp cfca7aa1-b83d-4087-ac3c-d69d72d24d14)\u000d\u000a    (at 159.3175 81.123)\u000d\u000a    (descr "SOT583")\u000d\u000a    (tags "Integrated Circuit")\u000d\u000a    (property "Arrow Part Number" "")\u000d\u000a    (property "Arrow Price/Stock" "")\u000d\u000a    (property "Description" "Switching Voltage Regulators High-Efficiency, 2A, 18V, 1200kHz, Synchronous, Step-Down Converter")\u000d\u000a    (property "Height" "0.6")\u000d\u000a    (property "Manufacturer_Name" "Monolithic Power Systems (MPS)")\u000d\u000a    (property "Manufacturer_Part_Number" "MP2332HGTL-P")\u000d\u000a    (property "Mouser Part Number" "946-MP2332HGTL-P")\u000d\u000a    (property "Mouser Price/Stock" "https://www.mouser.co.uk/ProductDetail/Monolithic-Power-Systems-MPS/MP2332HGTL-P?qs=%252B6g0mu59x7LDoxfvqJ695A%3D%3D")\u000d\u000a    (property "Sheetfile" "File: power.kicad_sch")\u000d\u000a    (property "Sheetname" "POWER")\u000d\u000a    (path "/15ef381a-403b-4e16-bdb3-d63c11fd81a5/286532f5-f10a-4301-a195-2ad20410cc13")\u000d\u000a    (attr smd)\u000d\u000a    (fp_text reference "IC3" (at 0.6009 2.697 unlocked) (layer "F.SilkS")\u000d\u000a      (effects (font (size 0.6 0.6) (thickness 0.254)))\u000d\u000a      (tstamp 6a68077c-981f-4531-a392-21094384f084)\u000d\u000a    )\u000d\u000a    (fp_text value "MP2332HGTL-P" (at 0 0 unlocked) (layer "F.SilkS") hide\u000d\u000a      (effects (font (size 0.6 0.6) (thickness 0.254)))\u000d\u000a      (tstamp 65f04e37-eb0b-404f-8a38-a971ecd90c54)\u000d\u000a    )\u000d\u000a    (fp_text user "${REFERENCE}" (at 0 0) (layer "F.Fab")\u000d\u000a      (effects (font (size 1.27 1.27) (thickness 0.254)))\u000d\u000a      (tstamp dd9ff16d-5cd7-4276-8246-4e4ba43a1620)\u000d\u000a    )\u000d\u000a    (fp_line (start -0.25 1.05) (end -0.25 -1.05) (layer "F.SilkS") (width 0.2) (tstamp 5dc61e38-7d04-4775-8a5b-d445b5eba55b))\u000d\u000a    (fp_line (start 0.25 -1.05) (end 0.25 1.05) (layer "F.SilkS") (width 0.2) (tstamp 7193583b-4be6-47dd-a4f0-055fffd5f2fe))\u000d\u000a    (fp_line (start 0.25 1.05) (end -0.25 1.05) (layer "F.SilkS") (width 0.2) (tstamp 8bce19ec-810b-41a2-80c2-b0c8c953b087))\u000d\u000a    (fp_line (start -0.25 -1.05) (end 0.25 -1.05) (layer "F.SilkS") (width 0.2) (tstamp 9bd6c960-9bbd-4d97-8580-e2ca914a4dd9))\u000d\u000a    (fp_line (start -1.075 -1.15) (end -0.6 -1.15) (layer "F.SilkS") (width 0.2) (tstamp 9d163421-37c8-48a5-ab7b-02aaea049824))\u000d\u000a    (fp_line (start 1.225 -1.25) (end 1.225 1.25) (layer "F.CrtYd") (width 0.05) (tstamp 0db0b2d2-ad05-44d7-939e-e3aba6ca17c7))\u000d\u000a    (fp_line (start -1.225 1.25) (end -1.225 -1.25) (layer "F.CrtYd") (width 0.05) (tstamp 27712893-7445-4497-ab2c-9c50dc121e40))\u000d\u000a    (fp_line (start 1.225 1.25) (end -1.225 1.25) (layer "F.CrtYd") (width 0.05) (tstamp 5d814b4d-5f8d-49f8-8d08-cc0619ac6e51))\u000d\u000a    (fp_line (start -1.225 -1.25) (end 1.225 -1.25) (layer "F.CrtYd") (width 0.05) (tstamp 89877997-73cf-4cbd-a1f5-f13569e62819))\u000d\u000a    (fp_line (start -0.6 -0.55) (end -0.1 -1.05) (layer "F.Fab") (width 0.1) (tstamp 22e0928f-272b-419e-9549-c8d3a69f3887))\u000d\u000a    (fp_line (start 0.6 1.05) (end -0.6 1.05) (layer "F.Fab") (width 0.1) (tstamp 3eb4b03f-0cc4-4b08-becb-5f7f6b125a2e))\u000d\u000a    (fp_line (start -0.6 1.05) (end -0.6 -1.05) (layer "F.Fab") (width 0.1) (tstamp 7a2de326-58ac-4bfc-a110-c29da14b404e))\u000d\u000a    (fp_line (start 0.6 -1.05) (end 0.6 1.05) (layer "F.Fab") (width 0.1) (tstamp a68d7292-c5e9-4527-a043-fbdb51882576))\u000d\u000a    (fp_line (start -0.6 -1.05) (end 0.6 -1.05) (layer "F.Fab") (width 0.1) (tstamp d00a2477-7976-4959-b671-675bddffb9af))\u000d\u000a    (pad "1" smd rect (at -0.838 -0.75 90) (size 0.3 0.475) (layers "F.Cu" "F.Paste" "F.Mask")\u000d\u000a      (net 8 "/POWER/PG3V3") (pinfunction "PG") (pintype "passive") (tstamp 6bbe06d5-65a7-424d-a1ec-de18e1c1094b))\u000d\u000a    (pad "2" smd rect (at -0.838 -0.25 90) (size 0.3 0.475) (layers "F.Cu" "F.Paste" "F.Mask")\u000d\u000a      (net 3 "+12V") (pinfunction "IN") (pintype "passive") (tstamp fa7dbbe2-6c13-4497-8eef-d11bddfcc271))\u000d\u000a    (pad "3" smd rect (at -0.838 0.25 90) (size 0.3 0.475) (layers "F.Cu" "F.Paste" "F.Mask")\u000d\u000a      (net 9 "Net-(C19-Pad2)") (pinfunction "SW") (pintype "passive") (tstamp 971745d1-7d38-466c-a75e-7c3a641be745))\u000d\u000a    (pad "4" smd rect (at -0.838 0.75 90) (size 0.3 0.475) (layers "F.Cu" "F.Paste" "F.Mask")\u000d\u000a      (net 1 "GND") (pinfunction "GND") (pintype "passive") (tstamp 4721891e-b4c6-451d-b562-59a6eb198a8e))\u000d\u000a    (pad "5" smd rect (at 0.838 0.75 90) (size 0.3 0.475) (layers "F.Cu" "F.Paste" "F.Mask")\u000d\u000a      (net 10 "Net-(IC3-Pad5)") (pinfunction "BST") (pintype "passive") (tstamp 5fa7831a-a43a-414a-bf85-95cedcf9cf87))\u000d\u000a    (pad "6" smd rect (at 0.838 0.25 90) (size 0.3 0.475) (layers "F.Cu" "F.Paste" "F.Mask")\u000d\u000a      (net 11 "Net-(IC3-Pad6)") (pinfunction "EN") (pintype "passive") (tstamp d717958a-a3ad-4114-b139-e555849ab939))\u000d\u000a    (pad "7" smd rect (at 0.838 -0.25 90) (size 0.3 0.475) (layers "F.Cu" "F.Paste" "F.Mask")\u000d\u000a      (net 12 "Net-(C18-Pad2)") (pinfunction "SS") (pintype "passive") (tstamp 1f6492e4-0c26-45c3-8c67-880a7850cd04))\u000d\u000a    (pad "8" smd rect (at 0.838 -0.75 90) (size 0.3 0.475) (layers "F.Cu" "F.Paste" "F.Mask")\u000d\u000a      (net 13 "Net-(IC3-Pad8)") (pinfunction "FB") (pintype "passive") (tstamp 23792707-6300-430a-b8a8-102be982f770))\u000d\u000a    (model "C:\u005c\u005cUsers\u005c\u005cKarol\u005c\u005cDocuments\u005c\u005cGitHub\u005c\u005cPDMS_Additional\u005c\u005cPCB\u005c\u005cPDMS_Additional\u005c\u005cADDITIONAL\u005c\u005cSamacSys_Parts.3dshapes\u005c\u005cMP2332HGTL-P.stp"\u000d\u000a      (offset (xyz 0 0 0))\u000d\u000a      (scale (xyz 1 1 1))\u000d\u000a      (rotate (xyz 0 0 0))\u000d\u000a    )\u000d\u000a  )\u000d\u000a\u000d\u000a  (footprint "Resistor_SMD:R_0402_1005Metric_Pad0.72x0.64mm_HandSolder" (layer "F.Cu")\u000d\u000a    (tedit 5F6BB9E0) (tstamp dd11fa2f-4660-4e14-877b-4fad564a1105)\u000d\u000a    (at 163.3053 77.358 180)\u000d\u000a    (descr "Resistor SMD 0402 (1005 Metric), square (rectangular) end terminal, IPC_7351 nominal with elongated pad for handsoldering. (Body size source: IPC-SM-782 page 72, https://www.pcb-3d.com/wordpress/wp-content/uploads/ipc-sm-782a_amendment_1_and_2.pdf), generated with kicad-footprint-generator")\u000d\u000a    (tags "resistor handsolder")\u000d\u000a    (property "Sheetfile" "File: power.kicad_sch")\u000d\u000a    (property "Sheetname" "POWER")\u000d\u000a    (path "/15ef381a-403b-4e16-bdb3-d63c11fd81a5/afc0ef86-b388-41b0-b39e-eb853f24cf14")\u000d\u000a    (attr smd)\u000d\u000a    (fp_text reference "R10" (at -2.286 0 unlocked) (layer "F.SilkS")\u000d\u000a      (effects (font (size 0.6 0.6) (thickness 0.15)))\u000d\u000a      (tstamp c932be86-da80-4cfd-8ea4-6e16781f59cb)\u000d\u000a    )\u000d\u000a    (fp_text value "13k" (at 0 1.17 180 unlocked) (layer "F.Fab")\u000d\u000a      (effects (font (size 0.6 0.6) (thickness 0.15)))\u000d\u000a      (tstamp 531a6e37-e863-4037-843f-9376a440d94a)\u000d\u000a    )\u000d\u000a    (fp_text user "${REFERENCE}" (at 0 0) (layer "F.Fab")\u000d\u000a      (effects (font (size 0.26 0.26) (thickness 0.04)))\u000d\u000a      (tstamp 051ea726-dad8-4df8-b26a-f8ea80b259f7)\u000d\u000a    )\u000d\u000a    (fp_line (start -0.167621 -0.38) (end 0.167621 -0.38) (layer "F.SilkS") (width 0.12) (tstamp 79adf58e-2cc6-48ac-a150-d84df76b8c6e))\u000d\u000a    (fp_line (start -0.167621 0.38) (end 0.167621 0.38) (layer "F.SilkS") (width 0.12) (tstamp db4abd0f-16df-4dc9-b50b-ace0156701f3))\u000d\u000a    (fp_line (start -1.1 -0.47) (end 1.1 -0.47) (layer "F.CrtYd") (width 0.05) (tstamp 6f6161cb-d28d-4707-a9ed-55dbca87bb62))\u000d\u000a    (fp_line (start 1.1 -0.47) (end 1.1 0.47) (layer "F.CrtYd") (width 0.05) (tstamp cc2641c1-3cfd-4dbc-a76e-a557de930953))\u000d\u000a    (fp_line (start -1.1 0.47) (end -1.1 -0.47) (layer "F.CrtYd") (width 0.05) (tstamp e4472470-8136-453b-994c-bc01e18cb8c6))\u000d\u000a    (fp_line (start 1.1 0.47) (end -1.1 0.47) (layer "F.CrtYd") (width 0.05) (tstamp e733ccfb-4d53-4b19-b7a0-9e45ebf06268))\u000d\u000a    (fp_line (start -0.525 -0.27) (end 0.525 -0.27) (layer "F.Fab") (width 0.1) (tstamp 1d15b717-57bd-4781-83f0-f9350e664450))\u000d\u000a    (fp_line (start 0.525 -0.27) (end 0.525 0.27) (layer "F.Fab") (width 0.1) (tstamp 850a0684-6cb6-4184-ac86-54179ebaae5d))\u000d\u000a    (fp_line (start 0.525 0.27) (end -0.525 0.27) (layer "F.Fab") (width 0.1) (tstamp 900ae12c-94aa-42de-a573-1e9e7dc13d2b))\u000d\u000a    (fp_line (start -0.525 0.27) (end -0.525 -0.27) (layer "F.Fab") (width 0.1) (tstamp d398f08a-0815-4c7c-ad2e-553c47b8b22f))\u000d\u000a    (pad "1" smd roundrect (at -0.5975 0 180) (size 0.715 0.64) (layers "F.Cu" "F.Paste" "F.Mask") (roundrect_rratio 0.25)\u000d\u000a      (net 18 "Net-(C20-Pad1)") (pintype "passive") (tstamp 6a5b407b-873a-408f-9056-278b0b40fe78))\u000d\u000a    (pad "2" smd roundrect (at 0.5975 0 180) (size 0.715 0.64) (layers "F.Cu" "F.Paste" "F.Mask") (roundrect_rratio 0.25)\u000d\u000a      (net 1 "GND") (pintype "passive") (tstamp 23a050c8-9773-4be8-99ca-8a1d30398673))\u000d\u000a    (model "${KICAD6_3DMODEL_DIR}/Resistor_SMD.3dshapes/R_0402_1005Metric.wrl"\u000d\u000a      (offset (xyz 0 0 0))\u000d\u000a      (scale (xyz 1 1 1))\u000d\u000a      (rotate (xyz 0 0 0))\u000d\u000a    )\u000d\u000a  )\u000d\u000a\u000d\u000a  (footprint "Capacitor_SMD:C_0402_1005Metric_Pad0.74x0.62mm_HandSolder" (layer "F.Cu")\u000d\u000a    (tedit 5F6BB22C) (tstamp e3482524-df94-41aa-ad59-c04176d90469)\u000d\u000a    (at 163.3353 79.883 180)\u000d\u000a    (descr "Capacitor SMD 0402 (1005 Metric), square (rectangular) end terminal, IPC_7351 nominal with elongated pad for handsoldering. (Body size source: IPC-SM-782 page 76, https://www.pcb-3d.com/wordpress/wp-content/uploads/ipc-sm-782a_amendment_1_and_2.pdf), generated with kicad-footprint-generator")\u000d\u000a    (tags "capacitor handsolder")\u000d\u000a    (property "Sheetfile" "File: power.kicad_sch")\u000d\u000a    (property "Sheetname" "POWER")\u000d\u000a    (path "/15ef381a-403b-4e16-bdb3-d63c11fd81a5/c6e322e8-765f-4e8b-8f3c-0712a63b30a8")\u000d\u000a    (attr smd)\u000d\u000a    (fp_text reference "C18" (at -2.2727 0 unlocked) (layer "F.SilkS")\u000d\u000a      (effects (font (size 0.6 0.6) (thickness 0.15)))\u000d\u000a      (tstamp f2b27692-232e-43a4-b596-bc1515998fc3)\u000d\u000a    )\u000d\u000a    (fp_text value "6.8nF" (at 0 1.16 180 unlocked) (layer "F.Fab")\u000d\u000a      (effects (font (size 0.6 0.6) (thickness 0.15)))\u000d\u000a      (tstamp 2cde1f2b-9bc6-466b-a1f9-7a9cfa4abd9d)\u000d\u000a    )\u000d\u000a    (fp_text user "${REFERENCE}" (at 0 0) (layer "F.Fab")\u000d\u000a      (effects (font (size 0.25 0.25) (thickness 0.04)))\u000d\u000a      (tstamp 712c70dc-4559-4dc1-a0e0-b02696de8937)\u000d\u000a    )\u000d\u000a    (fp_line (start -0.115835 -0.36) (end 0.115835 -0.36) (layer "F.SilkS") (width 0.12) (tstamp 4ea610c5-cdd3-4848-8938-f23a008b4ee1))\u000d\u000a    (fp_line (start -0.115835 0.36) (end 0.115835 0.36) (layer "F.SilkS") (width 0.12) (tstamp d05aa6f6-a944-4274-b3dd-b5e154e861be))\u000d\u000a    (fp_line (start -1.08 0.46) (end -1.08 -0.46) (layer "F.CrtYd") (width 0.05) (tstamp 2038be28-19da-4aa2-8024-658f0e997432))\u000d\u000a    (fp_line (start -1.08 -0.46) (end 1.08 -0.46) (layer "F.CrtYd") (width 0.05) (tstamp 335a4494-14d2-4d76-afdd-3ecb0c5537b0))\u000d\u000a    (fp_line (start 1.08 -0.46) (end 1.08 0.46) (layer "F.CrtYd") (width 0.05) (tstamp b7a4f6ec-263b-42e2-b0c7-d237d3cb0e3c))\u000d\u000a    (fp_line (start 1.08 0.46) (end -1.08 0.46) (layer "F.CrtYd") (width 0.05) (tstamp ddf2f411-e620-4dd7-bb44-e34e8c86f67b))\u000d\u000a    (fp_line (start 0.5 -0.25) (end 0.5 0.25) (layer "F.Fab") (width 0.1) (tstamp 3d2045af-8c69-45c7-9823-1b002e0538c5))\u000d\u000a    (fp_line (start 0.5 0.25) (end -0.5 0.25) (layer "F.Fab") (width 0.1) (tstamp 4a0996f4-3bf9-4ce7-aec1-1bba0e94ee70))\u000d\u000a    (fp_line (start -0.5 -0.25) (end 0.5 -0.25) (layer "F.Fab") (width 0.1) (tstamp 5cb1c430-1277-4d7d-bde5-baf20f4fcf01))\u000d\u000a    (fp_line (start -0.5 0.25) (end -0.5 -0.25) (layer "F.Fab") (width 0.1) (tstamp 744317e8-995a-40bb-925e-305c69b39736))\u000d\u000a    (pad "1" smd roundrect (at -0.5675 0 180) (size 0.735 0.62) (layers "F.Cu" "F.Paste" "F.Mask") (roundrect_rratio 0.25)\u000d\u000a      (net 1 "GND") (pintype "passive") (tstamp 5eebeba5-f3e9-4673-8e3b-9d465d93c36f))\u000d\u000a    (pad "2" smd roundrect (at 0.5675 0 180) (size 0.735 0.62) (layers "F.Cu" "F.Paste" "F.Mask") (roundrect_rratio 0.25)\u000d\u000a      (net 12 "Net-(C18-Pad2)") (pintype "passive") (tstamp c317c5fc-436a-4e53-8c22-f0746ec4d503))\u000d\u000a    (model "${KICAD6_3DMODEL_DIR}/Capacitor_SMD.3dshapes/C_0402_1005Metric.wrl"\u000d\u000a      (offset (xyz 0 0 0))\u000d\u000a      (scale (xyz 1 1 1))\u000d\u000a      (rotate (xyz 0 0 0))\u000d\u000a    )\u000d\u000a  )\u000d\u000a\u000d\u000a  (footprint "Fuse:Fuse_0805_2012Metric" (layer "F.Cu")\u000d\u000a    (tedit 5F68FEF1) (tstamp e6d409ca-de9b-4984-b9c7-b2af40719b9a)\u000d\u000a    (at 159.8676 73.3552)\u000d\u000a    (descr "Fuse SMD 0805 (2012 Metric), square (rectangular) end terminal, IPC_7351 nominal, (Body size source: https://docs.google.com/spreadsheets/d/1BsfQQcO9C6DZCsRaXUlFlo91Tg2WpOkGARC1WS5S8t0/edit?usp=sharing), generated with kicad-footprint-generator")\u000d\u000a    (tags "fuse")\u000d\u000a    (property "Sheetfile" "File: power.kicad_sch")\u000d\u000a    (property "Sheetname" "POWER")\u000d\u000a    (path "/15ef381a-403b-4e16-bdb3-d63c11fd81a5/7d842521-5d6e-434f-86e0-4f60bd576392")\u000d\u000a    (attr smd)\u000d\u000a    (fp_text reference "F1" (at -2.3876 0.1524 unlocked) (layer "F.SilkS")\u000d\u000a      (effects (font (size 0.6 0.6) (thickness 0.15)))\u000d\u000a      (tstamp 0df7408c-bc6a-4518-b988-c34b25f08c1e)\u000d\u000a    )\u000d\u000a    (fp_text value "Fuse" (at 0 1.65 unlocked) (layer "F.Fab")\u000d\u000a      (effects (font (size 0.6 0.6) (thickness 0.15)))\u000d\u000a      (tstamp 8e9023aa-6e17-451e-9da3-e4f32ad2650a)\u000d\u000a    )\u000d\u000a    (fp_text user "${REFERENCE}" (at 0 0) (layer "F.Fab")\u000d\u000a      (effects (font (size 0.5 0.5) (thickness 0.08)))\u000d\u000a      (tstamp 6de4e14f-f1c1-474c-a34c-43f0b1fc3d73)\u000d\u000a    )\u000d\u000a    (fp_line (start -0.258578 0.71) (end 0.258578 0.71) (layer "F.SilkS") (width 0.12) (tstamp 495d0707-f5fe-46ef-9f37-9b6cc9edf8fb))\u000d\u000a    (fp_line (start -0.258578 -0.71) (end 0.258578 -0.71) (layer "F.SilkS") (width 0.12) (tstamp ada6a50e-b076-45c3-89a9-430f016e0848))\u000d\u000a    (fp_line (start 1.68 0.95) (end -1.68 0.95) (layer "F.CrtYd") (width 0.05) (tstamp 45c7b964-9c30-45ed-987f-79fde22b692d))\u000d\u000a    (fp_line (start -1.68 -0.95) (end 1.68 -0.95) (layer "F.CrtYd") (width 0.05) (tstamp 45cefe0f-ac0e-4a85-a379-99f89542b473))\u000d\u000a    (fp_line (start -1.68 0.95) (end -1.68 -0.95) (layer "F.CrtYd") (width 0.05) (tstamp db8feb8f-6635-401e-9046-2975ac1be07f))\u000d\u000a    (fp_line (start 1.68 -0.95) (end 1.68 0.95) (layer "F.CrtYd") (width 0.05) (tstamp f4dfe3b6-f497-4a41-bbd9-a6a71bf43ca0))\u000d\u000a    (fp_line (start -1 -0.6) (end 1 -0.6) (layer "F.Fab") (width 0.1) (tstamp 3ff7d1f0-fa19-47b7-9c45-5941ea14ce5c))\u000d\u000a    (fp_line (start -1 0.6) (end -1 -0.6) (layer "F.Fab") (width 0.1) (tstamp 5c396fc1-122e-4212-a2f8-8fc0b9081c61))\u000d\u000a    (fp_line (start 1 -0.6) (end 1 0.6) (layer "F.Fab") (width 0.1) (tstamp 77d76be1-c339-4653-bc94-e37d330020ca))\u000d\u000a    (fp_line (start 1 0.6) (end -1 0.6) (layer "F.Fab") (width 0.1) (tstamp 875ae5e7-32ad-46ff-b0ad-15ce9e246ae2))\u000d\u000a    (pad "1" smd roundrect (at -0.9375 0) (size 0.975 1.4) (layers "F.Cu" "F.Paste" "F.Mask") (roundrect_rratio 0.25)\u000d\u000a      (net 3 "+12V") (pintype "passive") (tstamp 090ee30e-be3b-4e7a-a906-8d46e23e8172))\u000d\u000a    (pad "2" smd roundrect (at 0.9375 0) (size 0.975 1.4) (layers "F.Cu" "F.Paste" "F.Mask") (roundrect_rratio 0.25)\u000d\u000a      (net 5 "Net-(F1-Pad2)") (pintype "passive") (tstamp 09c2bb0d-5086-4707-abe2-a142af7bf9eb))\u000d\u000a    (model "${KICAD6_3DMODEL_DIR}/Fuse.3dshapes/Fuse_0805_2012Metric.wrl"\u000d\u000a      (offset (xyz 0 0 0))\u000d\u000a      (scale (xyz 1 1 1))\u000d\u000a      (rotate (xyz 0 0 0))\u000d\u000a    )\u000d\u000a  )\u000d\u000a\u000d\u000a  (footprint "Capacitor_SMD:C_0402_1005Metric_Pad0.74x0.62mm_HandSolder" (layer "F.Cu")\u000d\u000a    (tedit 5F6BB22C) (tstamp ebc765a2-1ffa-4448-bbfc-0b4313de292b)\u000d\u000a    (at 159.258 77.5208 180)\u000d\u000a    (descr "Capacitor SMD 0402 (1005 Metric), square (rectangular) end terminal, IPC_7351 nominal with elongated pad for handsoldering. (Body size source: IPC-SM-782 page 76, https://www.pcb-3d.com/wordpress/wp-content/uploads/ipc-sm-782a_amendment_1_and_2.pdf), generated with kicad-footprint-generator")\u000d\u000a    (tags "capacitor handsolder")\u000d\u000a    (property "Sheetfile" "File: power.kicad_sch")\u000d\u000a    (property "Sheetname" "POWER")\u000d\u000a    (path "/15ef381a-403b-4e16-bdb3-d63c11fd81a5/14b3d231-af89-4ea6-b8af-76489e594fbb")\u000d\u000a    (attr smd)\u000d\u000a    (fp_text reference "C17" (at 1.778 0.1016 unlocked) (layer "F.SilkS")\u000d\u000a      (effects (font (size 0.6 0.6) (thickness 0.15)))\u000d\u000a      (tstamp 1c6c6de8-3d7e-46b5-8359-4c05b95d948d)\u000d\u000a    )\u000d\u000a    (fp_text value "0.1uF" (at 0 1.16 180 unlocked) (layer "F.Fab")\u000d\u000a      (effects (font (size 0.6 0.6) (thickness 0.15)))\u000d\u000a      (tstamp 083c0c81-152c-4306-8ce1-93f8680f7f46)\u000d\u000a    )\u000d\u000a    (fp_text user "${REFERENCE}" (at 0 0) (layer "F.Fab")\u000d\u000a      (effects (font (size 0.25 0.25) (thickness 0.04)))\u000d\u000a      (tstamp b7cfc19d-7aaf-4d26-b67c-786214f27be5)\u000d\u000a    )\u000d\u000a    (fp_line (start -0.115835 -0.36) (end 0.115835 -0.36) (layer "F.SilkS") (width 0.12) (tstamp 35995bbc-d4b2-49db-aef6-bb1f2cd91296))\u000d\u000a    (fp_line (start -0.115835 0.36) (end 0.115835 0.36) (layer "F.SilkS") (width 0.12) (tstamp 40f415bb-54e2-41dc-ada1-0881dacafabb))\u000d\u000a    (fp_line (start -1.08 -0.46) (end 1.08 -0.46) (layer "F.CrtYd") (width 0.05) (tstamp 078320ac-a704-4595-8032-530074ec36ea))\u000d\u000a    (fp_line (start 1.08 -0.46) (end 1.08 0.46) (layer "F.CrtYd") (width 0.05) (tstamp 1404a22a-e0d1-4665-be7f-5efe74cbd1e9))\u000d\u000a    (fp_line (start -1.08 0.46) (end -1.08 -0.46) (layer "F.CrtYd") (width 0.05) (tstamp 24876d02-3e71-4ea1-8c5b-650d8cec26da))\u000d\u000a    (fp_line (start 1.08 0.46) (end -1.08 0.46) (layer "F.CrtYd") (width 0.05) (tstamp ec28dd68-0cd8-4651-b20d-9ee606d0f8b8))\u000d\u000a    (fp_line (start 0.5 -0.25) (end 0.5 0.25) (layer "F.Fab") (width 0.1) (tstamp 5a80d649-c6a3-418e-b861-c26e502d59d8))\u000d\u000a    (fp_line (start -0.5 0.25) (end -0.5 -0.25) (layer "F.Fab") (width 0.1) (tstamp 6b33c015-5d50-48c2-b15f-e5fb0a074207))\u000d\u000a    (fp_line (start 0.5 0.25) (end -0.5 0.25) (layer "F.Fab") (width 0.1) (tstamp 95ce8283-ba4a-4ac0-9351-3e0e121adee5))\u000d\u000a    (fp_line (start -0.5 -0.25) (end 0.5 -0.25) (layer "F.Fab") (width 0.1) (tstamp c8d2fb9f-4a5e-4059-856c-f1cae3bbff41))\u000d\u000a    (pad "1" smd roundrect (at -0.5675 0 180) (size 0.735 0.62) (layers "F.Cu" "F.Paste" "F.Mask") (roundrect_rratio 0.25)\u000d\u000a      (net 1 "GND") (pintype "passive") (tstamp 8504074d-612a-434f-a5ab-e56cb4dee803))\u000d\u000a    (pad "2" smd roundrect (at 0.5675 0 180) (size 0.735 0.62) (layers "F.Cu" "F.Paste" "F.Mask") (roundrect_rratio 0.25)\u000d\u000a      (net 3 "+12V") (pintype "passive") (tstamp 0efb407b-7006-4cf4-9b5d-8f48ec5d9436))\u000d\u000a    (model "${KICAD6_3DMODEL_DIR}/Capacitor_SMD.3dshapes/C_0402_1005Metric.wrl"\u000d\u000a      (offset (xyz 0 0 0))\u000d\u000a      (scale (xyz 1 1 1))\u000d\u000a      (rotate (xyz 0 0 0))\u000d\u000a    )\u000d\u000a  )\u000d\u000a\u000d\u000a  (footprint "Capacitor_SMD:C_0402_1005Metric_Pad0.74x0.62mm_HandSolder" (layer "F.Cu")\u000d\u000a    (tedit 5F6BB22C) (tstamp edd7ae8b-52a4-41f9-8853-b456eb9a9b02)\u000d\u000a    (at 163.322 83.693 180)\u000d\u000a    (descr "Capacitor SMD 0402 (1005 Metric), square (rectangular) end terminal, IPC_7351 nominal with elongated pad for handsoldering. (Body size source: IPC-SM-782 page 76, https://www.pcb-3d.com/wordpress/wp-content/uploads/ipc-sm-782a_amendment_1_and_2.pdf), generated with kicad-footprint-generator")\u000d\u000a    (tags "capacitor handsolder")\u000d\u000a    (property "Sheetfile" "File: power.kicad_sch")\u000d\u000a    (property "Sheetname" "POWER")\u000d\u000a    (path "/15ef381a-403b-4e16-bdb3-d63c11fd81a5/fa39f872-685f-4615-b247-1f2254375717")\u000d\u000a    (attr smd)\u000d\u000a    (fp_text reference "C19" (at -2.286 -0.03 unlocked) (layer "F.SilkS")\u000d\u000a      (effects (font (size 0.6 0.6) (thickness 0.15)))\u000d\u000a      (tstamp 143e9fc6-9df9-41c7-a889-51ebaddf9051)\u000d\u000a    )\u000d\u000a    (fp_text value "1uF" (at 0 1.16 180 unlocked) (layer "F.Fab")\u000d\u000a      (effects (font (size 0.6 0.6) (thickness 0.15)))\u000d\u000a      (tstamp cb6ecdb6-e39e-4998-9d2e-8463730cf92f)\u000d\u000a    )\u000d\u000a    (fp_text user "${REFERENCE}" (at 0 0) (layer "F.Fab")\u000d\u000a      (effects (font (size 0.25 0.25) (thickness 0.04)))\u000d\u000a      (tstamp 1fe0dd15-2f8e-4545-b223-39649be29b38)\u000d\u000a    )\u000d\u000a    (fp_line (start -0.115835 -0.36) (end 0.115835 -0.36) (layer "F.SilkS") (width 0.12) (tstamp 0fd61fcc-ec57-4d91-8a31-9e507336d75e))\u000d\u000a    (fp_line (start -0.115835 0.36) (end 0.115835 0.36) (layer "F.SilkS") (width 0.12) (tstamp c57499c3-99f0-4e5b-b7f7-2d28089f5062))\u000d\u000a    (fp_line (start 1.08 -0.46) (end 1.08 0.46) (layer "F.CrtYd") (width 0.05) (tstamp 42a925c8-785a-4938-8798-5051012128e8))\u000d\u000a    (fp_line (start -1.08 0.46) (end -1.08 -0.46) (layer "F.CrtYd") (width 0.05) (tstamp 56a5d1c9-d1b1-405b-954e-c0d20b0939c7))\u000d\u000a    (fp_line (start 1.08 0.46) (end -1.08 0.46) (layer "F.CrtYd") (width 0.05) (tstamp 5bc98328-76d1-4b0a-8bc7-8420bb1d86a1))\u000d\u000a    (fp_line (start -1.08 -0.46) (end 1.08 -0.46) (layer "F.CrtYd") (width 0.05) (tstamp 975a01fa-5bce-483d-ae8c-3e8a7ee70733))\u000d\u000a    (fp_line (start 0.5 -0.25) (end 0.5 0.25) (layer "F.Fab") (width 0.1) (tstamp adc49d2a-90bc-4367-8edb-b7b5b582e8f1))\u000d\u000a    (fp_line (start 0.5 0.25) (end -0.5 0.25) (layer "F.Fab") (width 0.1) (tstamp b41b8c21-738d-4589-89e4-01efcbd7b583))\u000d\u000a    (fp_line (start -0.5 0.25) (end -0.5 -0.25) (layer "F.Fab") (width 0.1) (tstamp b92b8beb-efd8-4c84-933d-605c2b75cf84))\u000d\u000a    (fp_line (start -0.5 -0.25) (end 0.5 -0.25) (layer "F.Fab") (width 0.1) (tstamp cba37df9-0f58-4cf3-a68e-4c61927213c2))\u000d\u000a    (pad "1" smd roundrect (at -0.5675 0 180) (size 0.735 0.62) (layers "F.Cu" "F.Paste" "F.Mask") (roundrect_rratio 0.25)\u000d\u000a      (net 17 "Net-(C19-Pad1)") (pintype "passive") (tstamp 9349f238-a775-4fe0-bf85-f89e3f2fbef6))\u000d\u000a    (pad "2" smd roundrect (at 0.5675 0 180) (size 0.735 0.62) (layers "F.Cu" "F.Paste" "F.Mask") (roundrect_rratio 0.25)\u000d\u000a      (net 9 "Net-(C19-Pad2)") (pintype "passive") (tstamp 8d07a118-a0ec-42be-98ec-9c2c702afc17))\u000d\u000a    (model "${KICAD6_3DMODEL_DIR}/Capacitor_SMD.3dshapes/C_0402_1005Metric.wrl"\u000d\u000a      (offset (xyz 0 0 0))\u000d\u000a      (scale (xyz 1 1 1))\u000d\u000a      (rotate (xyz 0 0 0))\u000d\u000a    )\u000d\u000a  )\u000d\u000a\u000d\u000a  (gr_text "by K.Pergol" (at 157.1752 54.1528) (layer "B.SilkS") (tstamp 4c00049e-181c-460d-a01e-3f19f03f49a8)\u000d\u000a    (effects (font (size 1 1) (thickness 0.15)) (justify mirror))\u000d\u000a  )\u000d\u000a\u000d\u000a  (segment (start 152.3913 77.0636) (end 151.6888 77.0636) (width 0.25) (layer "F.Cu") (net 1) (tstamp 187c9239-ed3e-4b19-929d-e0c146b79397))\u000d\u000a  (segment (start 159.885 77.5803) (end 159.8255 77.5208) (width 0.25) (layer "F.Cu") (net 1) (tstamp 21a376df-664b-481b-98ea-1093a28281fb))\u000d\u000a  (segment (start 159.8255 77.5208) (end 159.8255 76.6333) (width 0.25) (layer "F.Cu") (net 1) (tstamp 2253dc13-6384-4224-8da5-5e88c5b861f1))\u000d\u000a  (segment (start 154.9532 71.675) (end 158.1825 71.675) (width 0.25) (layer "F.Cu") (net 1) (tstamp 234e6b14-866c-48d1-8040-b51c928413bd))\u000d\u000a  (segment (start 150.889 54.062) (end 152.889 54.062) (width 0.25) (layer "F.Cu") (net 1) (tstamp 2c703d0c-6a47-4585-80be-dbc63ae0569b))\u000d\u000a  (segment (start 150.529 54.422) (end 150.889 54.062) (width 0.25) (layer "F.Cu") (net 1) (tstamp 4f49ad80-7954-4202-964c-8379a182fb21))\u000d\u000a  (segment (start 158.1825 71.675) (end 158.8414 71.0161) (width 0.25) (layer "F.Cu") (net 1) (tstamp 56a02b07-3044-4240-b9d8-905f81bef492))\u000d\u000a  (segment (start 158.4795 81.873) (end 158.4795 82.499) (width 0.25) (layer "F.Cu") (net 1) (tstamp 59bdee73-a5a9-472e-9910-c65f9d196bd8))\u000d\u000a  (segment (start 159.885 78.867) (end 160.782 78.867) (width 0.25) (layer "F.Cu") (net 1) (tstamp 5d047b83-94bd-4e35-b5ff-d63e9f2cc975))\u000d\u000a  (segment (start 162.1074 65.4812) (end 161.1884 65.4812) (width 0.25) (layer "F.Cu") (net 1) (tstamp 682b3d03-9696-46ce-9d27-6f10633313f9))\u000d\u000a  (segment (start 164.1515 69.5285) (end 163.83 69.85) (width 0.25) (layer "F.Cu") (net 1) (tstamp 844dbbad-1ea4-45ca-ae74-4a5c2131dc20))\u000d\u000a  (segment (start 158.4795 82.499) (end 158.1745 82.804) (width 0.25) (layer "F.Cu") (net 1) (tstamp 851587d4-d3f5-4dac-acc5-aa6dd050456e))\u000d\u000a  (segment (start 152.3913 75.7936) (end 151.7396 75.7936) (width 0.25) (layer "F.Cu") (net 1) (tstamp 94da8a77-e1e4-4694-92a3-d478d618f2b8))\u000d\u000a  (segment (start 158.4795 82.474) (end 158.8095 82.804) (width 0.25) (layer "F.Cu") (net 1) (tstamp b4ff0488-8a0d-4b75-9dfa-04efdec9f134))\u000d\u000a  (segment (start 158.4795 81.873) (end 158.4795 82.474) (width 0.25) (layer "F.Cu") (net 1) (tstamp b9c1a0ff-3398-493c-8f3d-91142bdbe39e))\u000d\u000a  (segment (start 159.8255 76.6333) (end 160.8176 75.6412) (width 0.25) (layer "F.Cu") (net 1) (tstamp c425bf70-c1f4-405c-8ca9-a8b498d7ea69))\u000d\u000a  (segment (start 161.94 77.358) (end 161.925 77.343) (width 0.25) (layer "F.Cu") (net 1) (tstamp d0f16985-7eee-454b-a92e-8ddb31ae6468))\u000d\u000a  (segment (start 162.7078 77.358) (end 161.94 77.358) (width 0.25) (layer "F.Cu") (net 1) (tstamp d214f520-d98e-4bab-ab4d-afbda6f7def6))\u000d\u000a  (segment (start 159.885 78.867) (end 159.885 77.5803) (width 0.25) (layer "F.Cu") (net 1) (tstamp e87ce346-d8bc-4636-b853-36bb12de7fa6))\u000d\u000a  (segment (start 158.8095 82.804) (end 160.0795 82.804) (width 0.25) (layer "F.Cu") (net 1) (tstamp effde469-3aa4-4571-af04-1c4c473fa784))\u000d\u000a  (via (at 159.4445 82.804) (size 0.6) (drill 0.3) (layers "F.Cu" "B.Cu") (free) (net 1) (tstamp 2a46bda8-de12-4652-8008-bea50283af79))\u000d\u000a  (via (at 161.1884 65.4812) (size 0.6) (drill 0.3) (layers "F.Cu" "B.Cu") (net 1) (tstamp 325d1483-c362-4da5-bab2-9c6cb872e6c0))\u000d\u000a  (via (at 160.0795 82.804) (size 0.6) (drill 0.3) (layers "F.Cu" "B.Cu") (free) (net 1) (tstamp 66400892-1c3b-49b9-9e44-a77e3f6f8bdd))\u000d\u000a  (via (at 158.1745 82.804) (size 0.6) (drill 0.3) (layers "F.Cu" "B.Cu") (free) (net 1) (tstamp 6c9e4a08-1551-40e8-8971-04c771f4e998))\u000d\u000a  (via (at 163.83 69.85) (size 0.6) (drill 0.3) (layers "F.Cu" "B.Cu") (net 1) (tstamp 6d2b79c3-0619-442d-b491-7f06750ee3f7))\u000d\u000a  (via (at 161.925 77.343) (size 0.6) (drill 0.3) (layers "F.Cu" "B.Cu") (net 1) (tstamp 7c5b61a1-a68d-4e7c-8a4b-aa51fc8c6ad0))\u000d\u000a  (via (at 151.7396 75.7936) (size 0.6) (drill 0.3) (layers "F.Cu" "B.Cu") (net 1) (tstamp 8d62eb32-2794-4aa2-be61-1d987168d733))\u000d\u000a  (via (at 151.6888 77.0636) (size 0.6) (drill 0.3) (layers "F.Cu" "B.Cu") (net 1) (tstamp ba06afeb-eefe-41d0-82d3-ee923beb6140))\u000d\u000a  (via (at 158.8095 82.804) (size 0.6) (drill 0.3) (layers "F.Cu" "B.Cu") (free) (net 1) (tstamp bcce1aaf-8042-43d8-80de-576640e12821))\u000d\u000a  (via (at 160.782 78.867) (size 0.6) (drill 0.3) (layers "F.Cu" "B.Cu") (net 1) (tstamp e202704a-b32b-4d2c-865e-a8902f5e9f69))\u000d\u000a  (segment (start 162.695 76.0752) (end 162.7078 76.088) (width 0.25) (layer "F.Cu") (net 2) (tstamp 87dcffd4-4c9a-46c5-b676-1fc0eb0a802a))\u000d\u000a  (segment (start 162.695 74.8284) (end 162.695 74.033) (width 0.25) (layer "F.Cu") (net 2) (tstamp d8f0d150-aa4b-47a8-9567-546e728e9583))\u000d\u000a  (segment (start 162.695 74.033) (end 162.7124 74.0156) (width 0.25) (layer "F.Cu") (net 2) (tstamp e499431b-a1cb-4b96-b3a6-d22453730c14))\u000d\u000a  (segment (start 162.695 74.8284) (end 162.695 76.0752) (width 0.25) (layer "F.Cu") (net 2) (tstamp f6d17f3f-dd63-4545-8486-3973447223bd))\u000d\u000a  (via (at 154.542066 75.4888) (size 0.6) (drill 0.3) (layers "F.Cu" "B.Cu") (net 2) (tstamp 096854d4-1ae1-42b2-8ed4-3497c291cb5e))\u000d\u000a  (via (at 162.7124 74.0156) (size 0.6) (drill 0.3) (layers "F.Cu" "B.Cu") (net 2) (tstamp 0dc84289-8ffb-488a-919e-32a972f5464f))\u000d\u000a  (via (at 155.194 77.5208) (size 0.6) (drill 0.3) (layers "F.Cu" "B.Cu") (net 2) (tstamp 11cf8f9a-5297-479f-b001-b49ed6c19bc2))\u000d\u000a  (via (at 155.9052 77.5208) (size 0.6) (drill 0.3) (layers "F.Cu" "B.Cu") (net 2) (tstamp 11ec6751-beef-4fff-8f0b-eb754a28bafc))\u000d\u000a  (via (at 154.516668 76.166133) (size 0.6) (drill 0.3) (layers "F.Cu" "B.Cu") (net 2) (tstamp 35f08c84-f307-4776-a8a6-b338d31c5028))\u000d\u000a  (via (at 154.525134 76.843466) (size 0.6) (drill 0.3) (layers "F.Cu" "B.Cu") (net 2) (tstamp 3aab15f3-1722-4a60-8142-6ef5744cb435))\u000d\u000a  (via (at 155.913666 75.4888) (size 0.6) (drill 0.3) (layers "F.Cu" "B.Cu") (net 2) (tstamp 67c60829-7f06-42ab-be01-bba67300926e))\u000d\u000a  (via (at 155.185534 76.843466) (size 0.6) (drill 0.3) (layers "F.Cu" "B.Cu") (net 2) (tstamp 70390475-d710-47fc-8493-594edb55317d))\u000d\u000a  (via (at 155.202466 75.4888) (size 0.6) (drill 0.3) (layers "F.Cu" "B.Cu") (net 2) (tstamp 8c47a369-3d57-4dd1-a9ef-40633298bd8f))\u000d\u000a  (via (at 155.177068 76.166133) (size 0.6) (drill 0.3) (layers "F.Cu" "B.Cu") (net 2) (tstamp aa5e3ffc-47fd-4ed3-8dea-8841b1e9045d))\u000d\u000a  (via (at 155.896734 76.843466) (size 0.6) (drill 0.3) (layers "F.Cu" "B.Cu") (net 2) (tstamp b920a99f-efb9-4ce5-b6dd-84b100f39607))\u000d\u000a  (via (at 154.5336 77.5208) (size 0.6) (drill 0.3) (layers "F.Cu" "B.Cu") (net 2) (tstamp cb7b306c-e04e-4de8-a5c8-9dc3a333b227))\u000d\u000a  (via (at 155.888268 76.166133) (size 0.6) (drill 0.3) (layers "F.Cu" "B.Cu") (net 2) (tstamp faf9a623-2131-462a-b676-4852d5fc9374))\u000d\u000a  (segment (start 158.4795 80.873) (end 158.981042 80.873) (width 0.25) (layer "F.Cu") (net 3) (tstamp 0ef8e34e-6c16-4dd2-bc74-8508dfcc04dd))\u000d\u000a  (segment (start 164.0211 81.2546) (end 163.9195 81.153) (width 0.25) (layer "F.Cu") (net 3) (tstamp e3c88129-3a2c-46c0-9ac0-2e422e888aee))\u000d\u000a  (segment (start 158.981042 80.873) (end 159.198632 81.09059) (width 0.25) (layer "F.Cu") (net 3) (tstamp fd9e29c0-dddb-43b7-a158-68d0d6689dc5))\u000d\u000a  (via (at 159.198632 81.09059) (size 0.6) (drill 0.3) (layers "F.Cu" "B.Cu") (net 3) (tstamp c5cc6faf-05fe-42e1-82fe-1967007f9025))\u000d\u000a  (segment (start 164.1094 81.661) (end 164.3126 81.661) (width 0.25) (layer "B.Cu") (net 3) (tstamp 61c56ad1-b008-4102-b7a2-2d6249071124))\u000d\u000a  (segment (start 159.769042 81.661) (end 164.1094 81.661) (width 0.25) (layer "B.Cu") (net 3) (tstamp c0fa3369-8fdd-4756-9b75-4a844be22dd8))\u000d\u000a  (segment (start 159.198632 81.09059) (end 159.769042 81.661) (width 0.25) (layer "B.Cu") (net 3) (tstamp f00f01fc-b43c-4cfa-b59c-0a519632a065))\u000d\u000a  (via (at 158.784 56.282) (size 0.6) (drill 0.3) (layers "F.Cu" "B.Cu") (net 4) (tstamp 0e0cebfe-6f98-4f83-95ce-405a535bb509))\u000d\u000a  (via (at 156.879 55.647) (size 0.6) (drill 0.3) (layers "F.Cu" "B.Cu") (net 4) (tstamp 2163a9ea-0b0e-4219-bd28-a020b64636f0))\u000d\u000a  (via (at 157.514 56.282) (size 0.6) (drill 0.3) (layers "F.Cu" "B.Cu") (net 4) (tstamp 273ea652-2b80-421b-bbb0-8d83164e0a25))\u000d\u000a  (via (at 158.149 56.282) (size 0.6) (drill 0.3) (layers "F.Cu" "B.Cu") (net 4) (tstamp 5981048c-0001-4301-bc3d-0662885c3421))\u000d\u000a  (via (at 156.879 56.282) (size 0.6) (drill 0.3) (layers "F.Cu" "B.Cu") (net 4) (tstamp 82ca7916-8181-42b3-8568-8618b54402b8))\u000d\u000a  (via (at 156.879 55.012) (size 0.6) (drill 0.3) (layers "F.Cu" "B.Cu") (net 4) (tstamp 8d4e5da9-eb43-4d49-bdd1-90967343cc13))\u000d\u000a  (segment (start 160.7414 71.0161) (end 160.7414 73.2915) (width 0.6) (layer "F.Cu") (net 5) (tstamp 5f9b3943-4a67-4bcf-85ef-79ad49f5a1ab))\u000d\u000a  (segment (start 160.7414 73.2915) (end 160.8051 73.3552) (width 0.6) (layer "F.Cu") (net 5) (tstamp 9f4fdcc4-9132-4c2f-9341-00bb69c0c3ff))\u000d\u000a  (segment (start 161.7952 60.833) (end 163.133 60.833) (width 0.25) (layer "F.Cu") (net 6) (tstamp 29898d8d-312f-410d-9c64-b15c0b2a2055))\u000d\u000a  (segment (start 154.9532 67.675) (end 161.7952 60.833) (width 0.25) (layer "F.Cu") (net 6) (tstamp f9335e94-0af9-480d-8238-22e7b7fc6a68))\u000d\u000a  (segment (start 160.45 56.9) (end 162.359 54.991) (width 0.25) (layer "F.Cu") (net 7) (tstamp 6897c25e-d9ee-4b90-89ef-9b31a73ef48b))\u000d\u000a  (segment (start 154.9532 63.6468) (end 160.45 58.15) (width 0.25) (layer "F.Cu") (net 7) (tstamp 7f6f6085-0664-4b98-9135-b01e143ba250))\u000d\u000a  (segment (start 162.359 54.991) (end 163.133 54.991) (width 0.25) (layer "F.Cu") (net 7) (tstamp 94394d25-f21c-43e9-bc99-0926abb913d2))\u000d\u000a  (segment (start 160.45 58.15) (end 160.45 56.9) (width 0.25) (layer "F.Cu") (net 7) (tstamp e6e3d064-8dc1-4664-a6e6-367ed87642d0))\u000d\u000a  (segment (start 158.4795 79.1375) (end 158.4795 80.373) (width 0.25) (layer "F.Cu") (net 8) (tstamp a5b3ad24-38f6-4216-8ff9-f98f0191ef4c))\u000d\u000a  (segment (start 158.75 78.867) (end 158.4795 79.1375) (width 0.25) (layer "F.Cu") (net 8) (tstamp bf12fda5-d30c-47c7-98c3-241583a72ac6))\u000d\u000a  (segment (start 157.2514 83.693) (end 156.9212 83.3628) (width 0.3) (layer "F.Cu") (net 9) (tstamp 07633149-feac-4bb3-be58-d6716db907bb))\u000d\u000a  (segment (start 162.7545 83.693) (end 157.2514 83.693) (width 0.3) (layer "F.Cu") (net 9) (tstamp c8c4e394-3dab-43b2-8fe8-83cb995ae18c))\u000d\u000a  (segment (start 160.1555 81.873) (end 162.1745 81.873) (width 0.25) (layer "F.Cu") (net 10) (tstamp 29ae917d-be92-4538-9112-da0465124fa3))\u000d\u000a  (segment (start 162.1745 81.873) (end 162.7245 82.423) (width 0.25) (layer "F.Cu") (net 10) (tstamp 9601b294-e9d6-41d4-a653-952cafa50518))\u000d\u000a  (segment (start 162.7245 81.153) (end 162.5045 81.373) (width 0.25) (layer "F.Cu") (net 11) (tstamp e302372f-7e3a-4389-859f-26615242e5e5))\u000d\u000a  (segment (start 162.5045 81.373) (end 160.1555 81.373) (width 0.25) (layer "F.Cu") (net 11) (tstamp fc5c6560-4da8-4f54-a28a-cd30862f52a7))\u000d\u000a  (segment (start 160.1555 80.873) (end 161.7778 80.873) (width 0.25) (layer "F.Cu") (net 12) (tstamp 1995ddd2-09cf-402a-9675-e6168aa2bfd0))\u000d\u000a  (segment (start 161.7778 80.873) (end 162.7678 79.883) (width 0.25) (layer "F.Cu") (net 12) (tstamp b8ebaffe-2834-456a-a704-f7a6aa65d543))\u000d\u000a  (segment (start 160.9645 80.373) (end 162.7245 78.613) (width 0.25) (layer "F.Cu") (net 13) (tstamp 5a513b52-f608-4393-9d4a-1006e6cfa311))\u000d\u000a  (segment (start 160.1555 80.373) (end 160.9645 80.373) (width 0.25) (layer "F.Cu") (net 13) (tstamp fb4b82f2-c48b-4823-9ceb-e5e0152e4114))\u000d\u000a  (segment (start 159.2575 69.675) (end 159.7914 69.1411) (width 0.6) (layer "F.Cu") (net 14) (tstamp a2c396ad-27ca-4283-93c9-b0cb240bf0eb))\u000d\u000a  (segment (start 154.9532 69.675) (end 159.2575 69.675) (width 0.6) (layer "F.Cu") (net 14) (tstamp a9a1f2aa-c682-4d25-9f04-98c48b3a4178))\u000d\u000a  (segment (start 163.133 59.563) (end 161.925 59.563) (width 0.25) (layer "F.Cu") (net 15) (tstamp 4e7db865-ed97-48c8-9cf0-f0ef762b17dc))\u000d\u000a  (segment (start 161.925 59.563) (end 155.813 65.675) (width 0.25) (layer "F.Cu") (net 15) (tstamp 79cbf3d2-a228-4b65-bf77-7d7c93ef417f))\u000d\u000a  (segment (start 155.813 65.675) (end 154.9532 65.675) (width 0.25) (layer "F.Cu") (net 15) (tstamp d24ce580-a42e-4363-b0ea-d39365a8ec96))\u000d\u000a  (segment (start 162.629 53.721) (end 159.7 56.65) (width 0.25) (layer "F.Cu") (net 16) (tstamp 17775cf6-d531-4cf8-840a-cc2ea35307c2))\u000d\u000a  (segment (start 154.9532 61.675) (end 155.749 61.675) (width 0.25) (layer "F.Cu") (net 16) (tstamp 4a509a12-c21c-4c10-af78-92965f48de34))\u000d\u000a  (segment (start 159.7 56.65) (end 159.7 57.7025) (width 0.25) (layer "F.Cu") (net 16) (tstamp 82213d64-9d18-47f3-a10d-1e7cb588eeb3))\u000d\u000a  (segment (start 163.133 53.721) (end 162.629 53.721) (width 0.25) (layer "F.Cu") (net 16) (tstamp 85b66be8-ef08-4b8f-917b-c637425eb724))\u000d\u000a  (segment (start 154.9532 61.675) (end 155.7275 61.675) (width 0.25) (layer "F.Cu") (net 16) (tstamp 9f788114-8879-42b1-acc0-addbe0e8a4db))\u000d\u000a  (segment (start 159.7 57.7025) (end 158.9 58.5025) (width 0.25) (layer "F.Cu") (net 16) (tstamp db631feb-d957-4ceb-b8a0-5bea1106647f))\u000d\u000a  (segment (start 155.7275 61.675) (end 158.9 58.5025) (width 0.25) (layer "F.Cu") (net 16) (tstamp e7778333-a346-4fe9-a144-d65cd6d7048b))\u000d\u000a  (segment (start 163.8895 82.453) (end 163.9195 82.423) (width 0.25) (layer "F.Cu") (net 17) (tstamp 17da3254-0e62-4b76-a45c-a38f65aeca09))\u000d\u000a  (segment (start 163.8895 83.693) (end 163.8895 82.453) (width 0.25) (layer "F.Cu") (net 17) (tstamp eb74a9c4-44d1-48af-9845-9212030670be))\u000d\u000a  (segment (start 163.9195 74.9179) (end 163.83 74.8284) (width 0.25) (layer "F.Cu") (net 18) (tstamp 05a2ecb6-a4b2-4ba1-b0c2-7dbc6ee02a04))\u000d\u000a  (segment (start 163.9195 78.613) (end 163.9195 74.9179) (width 0.25) (layer "F.Cu") (net 18) (tstamp 2abce897-cf22-4ef1-8173-dff1082f50a0))\u000d\u000a\u000d\u000a  (zone (net 1) (net_name "GND") (layer "F.Cu") (tstamp 0071c0c7-9b89-43d7-80e7-0c7d71eca684) (hatch edge 0.508)\u000d\u000a    (priority 1)\u000d\u000a    (connect_pads yes (clearance 0))\u000d\u000a    (min_thickness 0.254) (filled_areas_thickness no)\u000d\u000a    (fill yes (thermal_gap 0.508) (thermal_bridge_width 0.508))\u000d\u000a    (polygon\u000d\u000a      (pts\u000d\u000a        (xy 158.9365 82.296)\u000d\u000a        (xy 160.4605 82.423)\u000d\u000a        (xy 160.4605 83.185)\u000d\u000a        (xy 157.8951 83.178827)\u000d\u000a        (xy 157.8864 82.448355)\u000d\u000a        (xy 158.241969 82.4508)\u000d\u000a        (xy 158.250669 81.7142)\u000d\u000a        (xy 158.9365 81.7118)\u000d\u000a      )\u000d\u000a    )\u000d\u000a    (filled_polygon\u000d\u000a      (layer "F.Cu")\u000d\u000a      (pts\u000d\u000a        (xy 158.878247 81.732004)\u000d\u000a        (xy 158.924929 81.785495)\u000d\u000a        (xy 158.9365 81.838241)\u000d\u000a        (xy 158.9365 82.296)\u000d\u000a        (xy 160.344964 82.413372)\u000d\u000a        (xy 160.411188 82.438962)\u000d\u000a        (xy 160.453065 82.496294)\u000d\u000a        (xy 160.4605 82.538937)\u000d\u000a        (xy 160.4605 83.058696)\u000d\u000a        (xy 160.440498 83.126817)\u000d\u000a        (xy 160.386842 83.17331)\u000d\u000a        (xy 160.334197 83.184696)\u000d\u000a        (xy 159.395332 83.182437)\u000d\u000a        (xy 158.019309 83.179126)\u000d\u000a        (xy 157.951236 83.15896)\u000d\u000a        (xy 157.904873 83.105192)\u000d\u000a        (xy 157.893621 83.054627)\u000d\u000a        (xy 157.887929 82.576736)\u000d\u000a        (xy 157.907118 82.508382)\u000d\u000a        (xy 157.960216 82.461253)\u000d\u000a        (xy 158.014786 82.449238)\u000d\u000a        (xy 158.074992 82.449652)\u000d\u000a        (xy 158.241969 82.4508)\u000d\u000a        (xy 158.249089 81.84801)\u000d\u000a        (xy 158.269893 81.780132)\u000d\u000a        (xy 158.324094 81.734276)\u000d\u000a        (xy 158.375079 81.7235)\u000d\u000a        (xy 158.736748 81.7235)\u000d\u000a        (xy 158.781098 81.714678)\u000d\u000a        (xy 158.805225 81.712259)\u000d\u000a        (xy 158.810058 81.712242)\u000d\u000a      )\u000d\u000a    )\u000d\u000a  )\u000d\u000a  (zone (net 2) (net_name "+3.3V") (layer "F.Cu") (tstamp 1a90755c-0043-4739-ba7e-471061482210) (hatch edge 0.508)\u000d\u000a    (priority 1)\u000d\u000a    (connect_pads yes (clearance 0.1))\u000d\u000a    (min_thickness 0.254) (filled_areas_thickness no)\u000d\u000a    (fill yes (thermal_gap 0.508) (thermal_bridge_width 0.508))\u000d\u000a    (polygon\u000d\u000a      (pts\u000d\u000a        (xy 156.464 75.1332)\u000d\u000a        (xy 156.464 80.772)\u000d\u000a        (xy 153.0604 80.772)\u000d\u000a        (xy 153.0096 75.1332)\u000d\u000a      )\u000d\u000a    )\u000d\u000a    (filled_polygon\u000d\u000a      (layer "F.Cu")\u000d\u000a      (pts\u000d\u000a        (xy 156.406121 75.153202)\u000d\u000a        (xy 156.452614 75.206858)\u000d\u000a        (xy 156.464 75.2592)\u000d\u000a        (xy 156.464 80.646)\u000d\u000a        (xy 156.443998 80.714121)\u000d\u000a        (xy 156.390342 80.760614)\u000d\u000a        (xy 156.338 80.772)\u000d\u000a        (xy 153.18527 80.772)\u000d\u000a        (xy 153.117149 80.751998)\u000d\u000a        (xy 153.070656 80.698342)\u000d\u000a        (xy 153.059275 80.647135)\u000d\u000a        (xy 153.010745 75.260335)\u000d\u000a        (xy 153.030133 75.192037)\u000d\u000a        (xy 153.083367 75.145063)\u000d\u000a        (xy 153.13674 75.1332)\u000d\u000a        (xy 156.338 75.1332)\u000d\u000a      )\u000d\u000a    )\u000d\u000a  )\u000d\u000a  (zone (net 3) (net_name "+12V") (layer "F.Cu") (tstamp 3bc8a7e3-cd61-4ac5-81b9-26ff6f6005a6) (hatch edge 0.508)\u000d\u000a    (priority 1)\u000d\u000a    (connect_pads yes (clearance 0.1))\u000d\u000a    (min_thickness 0.254) (filled_areas_thickness no)\u000d\u000a    (fill yes (thermal_gap 0.508) (thermal_bridge_width 0.508))\u000d\u000a    (polygon\u000d\u000a      (pts\u000d\u000a        (xy 159.512 76.962)\u000d\u000a        (xy 159.258 76.962)\u000d\u000a        (xy 159.258 77.9526)\u000d\u000a        (xy 158.0388 77.9526)\u000d\u000a        (xy 158.0388 80.7212)\u000d\u000a        (xy 158.75 80.7212)\u000d\u000a        (xy 158.75 80.9752)\u000d\u000a        (xy 157.226 80.9752)\u000d\u000a        (xy 157.226 74.168)\u000d\u000a        (xy 153.543 74.168)\u000d\u000a        (xy 151.13 74.168)\u000d\u000a        (xy 149.86 72.644)\u000d\u000a        (xy 149.86 56.388)\u000d\u000a        (xy 149.86 55.626)\u000d\u000a        (xy 151.892 55.626)\u000d\u000a        (xy 151.892 54.7624)\u000d\u000a        (xy 153.0604 54.7624)\u000d\u000a        (xy 153.0604 56.388)\u000d\u000a        (xy 151.13 57.404)\u000d\u000a        (xy 151.13 71.882)\u000d\u000a        (xy 151.748008 72.664249)\u000d\u000a        (xy 157.226 72.644)\u000d\u000a        (xy 157.226 72.136)\u000d\u000a        (xy 159.512 72.136)\u000d\u000a      )\u000d\u000a    )\u000d\u000a    (filled_polygon\u000d\u000a      (layer "F.Cu")\u000d\u000a      (pts\u000d\u000a        (xy 153.002521 54.782402)\u000d\u000a        (xy 153.049014 54.836058)\u000d\u000a        (xy 153.0604 54.8884)\u000d\u000a        (xy 153.0604 56.311929)\u000d\u000a        (xy 153.040398 56.38005)\u000d\u000a        (xy 152.993084 56.423429)\u000d\u000a        (xy 151.954117 56.970254)\u000d\u000a        (xy 151.13 57.404)\u000d\u000a        (xy 151.13 71.882)\u000d\u000a        (xy 151.138465 71.892714)\u000d\u000a        (xy 151.138465 71.892715)\u000d\u000a        (xy 151.727307 72.638046)\u000d\u000a        (xy 151.748008 72.664249)\u000d\u000a        (xy 151.758575 72.66421)\u000d\u000a        (xy 157.207883 72.644067)\u000d\u000a        (xy 157.226 72.644)\u000d\u000a        (xy 157.226 72.262)\u000d\u000a        (xy 157.246002 72.193879)\u000d\u000a        (xy 157.299658 72.147386)\u000d\u000a        (xy 157.352 72.136)\u000d\u000a        (xy 159.386 72.136)\u000d\u000a        (xy 159.454121 72.156002)\u000d\u000a        (xy 159.500614 72.209658)\u000d\u000a        (xy 159.512 72.262)\u000d\u000a        (xy 159.512 76.525747)\u000d\u000a        (xy 159.510086 76.547624)\u000d\u000a        (xy 159.50837 76.557357)\u000d\u000a        (xy 159.50599 76.568092)\u000d\u000a        (xy 159.496236 76.604493)\u000d\u000a        (xy 159.497197 76.615478)\u000d\u000a        (xy 159.497197 76.61548)\u000d\u000a        (xy 159.49952 76.642028)\u000d\u000a        (xy 159.5 76.65301)\u000d\u000a        (xy 159.5 76.836)\u000d\u000a        (xy 159.479998 76.904121)\u000d\u000a        (xy 159.426342 76.950614)\u000d\u000a        (xy 159.374 76.962)\u000d\u000a        (xy 159.258 76.962)\u000d\u000a        (xy 159.258 77.32521)\u000d\u000a        (xy 159.257833 77.329816)\u000d\u000a        (xy 159.2575 77.332101)\u000d\u000a        (xy 159.257501 77.709498)\u000d\u000a        (xy 159.257833 77.711757)\u000d\u000a        (xy 159.258 77.716316)\u000d\u000a        (xy 159.258 77.8266)\u000d\u000a        (xy 159.237998 77.894721)\u000d\u000a        (xy 159.184342 77.941214)\u000d\u000a        (xy 159.132 77.9526)\u000d\u000a        (xy 158.0388 77.9526)\u000d\u000a        (xy 158.0388 80.7212)\u000d\u000a        (xy 158.1989 80.7212)\u000d\u000a        (xy 158.21125 80.721807)\u000d\u000a        (xy 158.216184 80.722293)\u000d\u000a        (xy 158.222252 80.7235)\u000d\u000a        (xy 158.228439 80.7235)\u000d\u000a        (xy 158.231556 80.723807)\u000d\u000a        (xy 158.297389 80.75039)\u000d\u000a        (xy 158.338398 80.808344)\u000d\u000a        (xy 158.341565 80.87927)\u000d\u000a        (xy 158.305884 80.940649)\u000d\u000a        (xy 158.242683 80.972993)\u000d\u000a        (xy 158.219206 80.9752)\u000d\u000a        (xy 157.352 80.9752)\u000d\u000a        (xy 157.283879 80.955198)\u000d\u000a        (xy 157.237386 80.901542)\u000d\u000a        (xy 157.226 80.8492)\u000d\u000a        (xy 157.226 74.168)\u000d\u000a        (xy 151.189015 74.168)\u000d\u000a        (xy 151.120894 74.147998)\u000d\u000a        (xy 151.092219 74.122663)\u000d\u000a        (xy 149.889204 72.679045)\u000d\u000a        (xy 149.86096 72.613908)\u000d\u000a        (xy 149.86 72.598382)\u000d\u000a        (xy 149.86 55.752)\u000d\u000a        (xy 149.880002 55.683879)\u000d\u000a        (xy 149.933658 55.637386)\u000d\u000a        (xy 149.986 55.626)\u000d\u000a        (xy 151.892 55.626)\u000d\u000a        (xy 151.892 54.8884)\u000d\u000a        (xy 151.912002 54.820279)\u000d\u000a        (xy 151.965658 54.773786)\u000d\u000a        (xy 152.018 54.7624)\u000d\u000a        (xy 152.9344 54.7624)\u000d\u000a      )\u000d\u000a    )\u000d\u000a  )\u000d\u000a  (zone (net 4) (net_name "+5V") (layer "F.Cu") (tstamp 8e72ab4b-fb3b-408d-9654-208d4a952a20) (hatch edge 0.508)\u000d\u000a    (priority 1)\u000d\u000a    (connect_pads (clearance 0.1))\u000d\u000a    (min_thickness 0.254) (filled_areas_thickness no)\u000d\u000a    (fill yes (thermal_gap 0.508) (thermal_bridge_width 0.508))\u000d\u000a    (polygon\u000d\u000a      (pts\u000d\u000a        (xy 159.165 56.79)\u000d\u000a        (xy 155.482 56.79)\u000d\u000a        (xy 155.482 54.631)\u000d\u000a        (xy 159.165 54.631)\u000d\u000a      )\u000d\u000a    )\u000d\u000a    (filled_polygon\u000d\u000a      (layer "F.Cu")\u000d\u000a      (pts\u000d\u000a        (xy 157.120729 54.651002)\u000d\u000a        (xy 157.167222 54.704658)\u000d\u000a        (xy 157.177326 54.774932)\u000d\u000a        (xy 157.175807 54.78342)\u000d\u000a        (xy 157.175642 54.784192)\u000d\u000a        (xy 157.166328 54.875097)\u000d\u000a        (xy 157.166071 54.880126)\u000d\u000a        (xy 157.170475 54.895124)\u000d\u000a        (xy 157.171865 54.896329)\u000d\u000a        (xy 157.179548 54.898)\u000d\u000a        (xy 158.277 54.898)\u000d\u000a        (xy 158.345121 54.918002)\u000d\u000a        (xy 158.391614 54.971658)\u000d\u000a        (xy 158.403 55.024)\u000d\u000a        (xy 158.403 56.091885)\u000d\u000a        (xy 158.407475 56.107124)\u000d\u000a        (xy 158.408865 56.108329)\u000d\u000a        (xy 158.416548 56.11)\u000d\u000a        (xy 158.444438 56.11)\u000d\u000a        (xy 158.450953 56.109663)\u000d\u000a        (xy 158.543057 56.100106)\u000d\u000a        (xy 158.556456 56.097212)\u000d\u000a        (xy 158.705107 56.047619)\u000d\u000a        (xy 158.718286 56.041445)\u000d\u000a        (xy 158.851173 55.959212)\u000d\u000a        (xy 158.862574 55.950176)\u000d\u000a        (xy 158.949827 55.862771)\u000d\u000a        (xy 159.01211 55.828692)\u000d\u000a        (xy 159.08293 55.833695)\u000d\u000a        (xy 159.139802 55.876192)\u000d\u000a        (xy 159.164671 55.942691)\u000d\u000a        (xy 159.165 55.951789)\u000d\u000a        (xy 159.165 56.664)\u000d\u000a        (xy 159.144998 56.732121)\u000d\u000a        (xy 159.091342 56.778614)\u000d\u000a        (xy 159.039 56.79)\u000d\u000a        (xy 156.534197 56.79)\u000d\u000a        (xy 156.466076 56.769998)\u000d\u000a        (xy 156.419583 56.716342)\u000d\u000a        (xy 156.409479 56.646068)\u000d\u000a        (xy 156.438973 56.581488)\u000d\u000a        (xy 156.461386 56.563405)\u000d\u000a        (xy 156.460462 56.562172)\u000d\u000a        (xy 156.569724 56.480285)\u000d\u000a        (xy 156.582285 56.467724)\u000d\u000a        (xy 156.658786 56.365649)\u000d\u000a        (xy 156.667324 56.350054)\u000d\u000a        (xy 156.712478 56.229606)\u000d\u000a        (xy 156.716105 56.214351)\u000d\u000a        (xy 156.721631 56.163486)\u000d\u000a        (xy 156.722 56.156672)\u000d\u000a        (xy 156.722 56.130115)\u000d\u000a        (xy 156.717525 56.114876)\u000d\u000a        (xy 156.716135 56.113671)\u000d\u000a        (xy 156.708452 56.112)\u000d\u000a        (xy 155.765 56.112)\u000d\u000a        (xy 155.696879 56.091998)\u000d\u000a        (xy 155.650386 56.038342)\u000d\u000a        (xy 155.639 55.986)\u000d\u000a        (xy 155.639 55.793885)\u000d\u000a        (xy 155.939 55.793885)\u000d\u000a        (xy 155.943475 55.809124)\u000d\u000a        (xy 155.944865 55.810329)\u000d\u000a        (xy 155.952548 55.812)\u000d\u000a        (xy 156.703884 55.812)\u000d\u000a        (xy 156.719123 55.807525)\u000d\u000a        (xy 156.720328 55.806135)\u000d\u000a        (xy 156.721999 55.798452)\u000d\u000a        (xy 156.721999 55.767331)\u000d\u000a        (xy 156.721629 55.76051)\u000d\u000a        (xy 156.716105 55.709648)\u000d\u000a        (xy 156.712479 55.694396)\u000d\u000a        (xy 156.667324 55.573946)\u000d\u000a        (xy 156.654478 55.550483)\u000d\u000a        (xy 156.656928 55.549141)\u000d\u000a        (xy 156.637096 55.496055)\u000d\u000a        (xy 156.652151 55.426673)\u000d\u000a        (xy 156.654873 55.422438)\u000d\u000a        (xy 157.166 55.422438)\u000d\u000a        (xy 157.166337 55.428953)\u000d\u000a        (xy 157.175894 55.521057)\u000d\u000a        (xy 157.178788 55.534456)\u000d\u000a        (xy 157.228381 55.683107)\u000d\u000a        (xy 157.234555 55.696286)\u000d\u000a        (xy 157.316788 55.829173)\u000d\u000a        (xy 157.325824 55.840574)\u000d\u000a        (xy 157.436429 55.950986)\u000d\u000a        (xy 157.44784 55.959998)\u000d\u000a        (xy 157.58088 56.042004)\u000d\u000a        (xy 157.594061 56.048151)\u000d\u000a        (xy 157.742814 56.097491)\u000d\u000a        (xy 157.75619 56.100358)\u000d\u000a        (xy 157.847097 56.109672)\u000d\u000a        (xy 157.853513 56.11)\u000d\u000a        (xy 157.876885 56.11)\u000d\u000a        (xy 157.892124 56.105525)\u000d\u000a        (xy 157.893329 56.104135)\u000d\u000a        (xy 157.895 56.096452)\u000d\u000a        (xy 157.895 55.424115)\u000d\u000a        (xy 157.890525 55.408876)\u000d\u000a        (xy 157.889135 55.407671)\u000d\u000a        (xy 157.881452 55.406)\u000d\u000a        (xy 157.184115 55.406)\u000d\u000a        (xy 157.168876 55.410475)\u000d\u000a        (xy 157.167671 55.411865)\u000d\u000a        (xy 157.166 55.419548)\u000d\u000a        (xy 157.166 55.422438)\u000d\u000a        (xy 156.654873 55.422438)\u000d\u000a        (xy 156.656197 55.420378)\u000d\u000a        (xy 156.667324 55.400054)\u000d\u000a        (xy 156.712478 55.279606)\u000d\u000a        (xy 156.716105 55.264351)\u000d\u000a        (xy 156.721631 55.213486)\u000d\u000a        (xy 156.722 55.206672)\u000d\u000a        (xy 156.722 55.180115)\u000d\u000a        (xy 156.717525 55.164876)\u000d\u000a        (xy 156.716135 55.163671)\u000d\u000a        (xy 156.708452 55.162)\u000d\u000a        (xy 155.957115 55.162)\u000d\u000a        (xy 155.941876 55.166475)\u000d\u000a        (xy 155.940671 55.167865)\u000d\u000a        (xy 155.939 55.175548)\u000d\u000a        (xy 155.939 55.793885)\u000d\u000a        (xy 155.639 55.793885)\u000d\u000a        (xy 155.639 54.988)\u000d\u000a        (xy 155.659002 54.919879)\u000d\u000a        (xy 155.712658 54.873386)\u000d\u000a        (xy 155.765 54.862)\u000d\u000a        (xy 156.703884 54.862)\u000d\u000a        (xy 156.719123 54.857525)\u000d\u000a        (xy 156.720328 54.856135)\u000d\u000a        (xy 156.721999 54.848452)\u000d\u000a        (xy 156.721999 54.817331)\u000d\u000a        (xy 156.72163 54.810512)\u000d\u000a        (xy 156.717295 54.770606)\u000d\u000a        (xy 156.729824 54.700724)\u000d\u000a        (xy 156.778145 54.648709)\u000d\u000a        (xy 156.842558 54.631)\u000d\u000a        (xy 157.052608 54.631)\u000d\u000a      )\u000d\u000a    )\u000d\u000a  )\u000d\u000a)\u000d\u000a
p4
V9f462df84d4caacb5463a2deb36df5ec
p5
(dp6
V15EF381A-403B-4E16-BDB3-D63C11FD81A5
p7
(lp8
VPOWER
p9
aVFile: power.kicad_sch
p10
asV2421C5AA-54B0-46E8-BDD8-D88E469AB69B
p11
(lp12
VHEADERS
p13
aVFile: headers.kicad_sch
p14
asV4A0DCC41-BB6B-4A9B-A87E-681379FD6D11
p15
(lp16
VCAN_BUS
p17
aVFile: can_bus.kicad_sch
p18
as(lp19
V+12V
p20
aVunconnected-(IC2-Pad6)
p21
aVNet-(C20-Pad1)
p22
aVNet-(IC3-Pad8)
p23
aVNet-(IC3-Pad5)
p24
aVNet-(C19-Pad1)
p25
aVNet-(IC3-Pad6)
p26
aV/POWER/PG3V3
p27
aVNet-(C19-Pad2)
p28
aVNet-(F1-Pad2)
p29
aVNet-(C18-Pad2)
p30
ag10
(lp31
g10
aI4
tp32
tp33
Rp34
.